Certificate:
    Data:
        Version: 3 (0x2)
        Serial Number: 3 (0x3)
        Signature Algorithm: sha1WithRSAEncryption
        Issuer: C=BA, ST=RS, O=Elektrotehnicki fakultet, OU=Kriptografija i racunarska zastita, CN=rootca/emailAddress=rootca@mail.com
        Validity
            Not Before: Apr 17 14:52:23 2021 GMT
            Not After : Apr 17 14:52:23 2022 GMT
        Subject: C=BA, ST=RS, O=Elektrotehnicki fakultet, OU=Kriptografija i racunarska zastita, CN=carak/emailAddress=carak
        Subject Public Key Info:
            Public Key Algorithm: rsaEncryption
                RSA Public-Key: (2048 bit)
                Modulus:
                    00:f7:2f:06:20:67:aa:00:b2:b7:cb:61:96:21:9f:
                    2e:ae:69:dd:c1:4e:af:2d:68:57:03:23:95:47:22:
                    ba:5b:4a:17:3d:ad:7c:f2:6a:2e:83:c6:2d:1f:b4:
                    1f:7d:7e:25:4f:bb:0c:12:10:ee:b4:03:f4:35:37:
                    36:3f:8c:83:56:01:03:80:9b:7e:d9:20:32:77:b0:
                    f4:e0:2c:05:e6:e4:eb:cb:17:a4:75:0b:33:77:ee:
                    f4:f3:95:4d:7b:27:4f:79:b5:8b:d4:91:91:d8:6b:
                    ac:77:8a:79:3d:05:cc:33:08:a8:07:21:3d:1f:8e:
                    35:31:d8:d0:05:c3:10:a2:71:e6:11:30:af:1f:37:
                    93:1d:a2:01:97:a2:7c:c8:8a:dc:3f:7d:72:2d:81:
                    ad:4a:1e:34:11:a5:73:35:a7:74:60:9a:95:f7:9b:
                    2f:b0:29:30:03:c1:fe:db:33:1a:bd:00:9e:01:fa:
                    d9:4c:a1:7c:d3:69:4d:66:8a:10:8b:37:17:9d:03:
                    f1:8a:fe:81:6d:f2:18:f0:9d:bd:52:14:bd:a2:99:
                    1c:26:10:36:ca:a1:a6:e8:7c:26:3b:f2:17:5d:bf:
                    a3:18:3a:34:57:f4:c5:31:16:c5:7d:22:4c:52:7f:
                    a8:6b:bb:62:19:27:bb:d4:16:c7:de:5c:e1:ba:31:
                    85:1b
                Exponent: 65537 (0x10001)
        X509v3 extensions:
            X509v3 Basic Constraints: 
                CA:FALSE
            X509v3 Extended Key Usage: 
                TLS Web Client Authentication
            Netscape Comment: 
                OpenSSL Generated Certificate
            X509v3 Subject Key Identifier: 
                AE:E3:DD:62:91:01:9A:D3:D8:FF:B2:B9:7B:A8:6A:72:A4:DE:D9:BC
            X509v3 Authority Key Identifier: 
                keyid:8E:FD:F1:76:1B:75:4A:0F:C9:9F:CD:14:50:0F:F0:48:76:AF:65:B8

            X509v3 CRL Distribution Points: 

                Full Name:
                  URI:http://192.168.21.89/rootcrl.pem

    Signature Algorithm: sha1WithRSAEncryption
         26:a1:c4:38:f4:61:e1:ce:a3:e1:36:1c:e5:0b:9e:72:4e:7a:
         53:28:0b:7e:7c:34:31:5e:90:47:e8:f0:bf:de:14:34:c7:1e:
         9c:b0:ac:27:0f:af:bb:42:80:d9:ae:b8:fb:5a:36:a1:16:c5:
         44:42:d2:47:df:1b:db:74:3a:11:39:6e:64:9d:cf:46:37:66:
         10:d9:a6:b7:e5:b5:fe:42:2c:95:ce:90:b2:9b:6e:4f:6c:04:
         a7:54:2a:11:a1:d0:7e:1e:21:3b:a1:87:0c:66:52:a1:3b:f9:
         5a:68:b6:01:f1:73:1a:6d:72:a3:7c:80:51:d6:4b:ba:98:ca:
         a9:fb:92:7d:e1:a2:55:23:0a:66:24:d0:e9:db:80:d2:22:3b:
         85:ef:fd:79:f7:4b:e5:72:96:cd:9c:8f:c0:16:39:c3:fe:3e:
         07:15:aa:8e:a1:ce:69:44:c9:23:3d:4b:61:d7:6b:7f:c8:40:
         d1:38:24:80:9f:e5:b6:5c:d1:a6:32:8c:3f:37:e4:8c:38:4b:
         d4:2a:32:99:ae:08:29:ce:71:a0:51:24:ee:c6:87:e5:a8:5a:
         72:5c:af:5d:2e:87:bd:ee:7d:52:3f:ba:ec:49:4f:b0:9e:a8:
         f2:83:aa:29:e3:6b:99:96:0a:54:5a:85:94:db:e2:bf:cc:80:
         c7:80:fb:6e:2e:94:e2:66:ac:85:aa:a4:72:71:74:e8:77:74:
         21:64:6b:16:cb:a5:72:2f:7a:a0:e4:0d:4f:89:21:ee:bf:be:
         b3:1a:c6:ce:bf:93:72:c1:46:34:b9:42:5f:b7:fe:f7:f1:1e:
         9e:80:1e:9a:19:62:83:af:ea:1f:0f:9d:c3:e1:6b:3e:9e:d2:
         7d:dc:da:45:d8:d4:da:ff:c1:04:cd:d8:f3:bc:8b:f6:39:6d:
         da:c8:96:6b:e6:00:ed:61:1e:3d:5e:fa:f7:fa:a4:cc:fb:cd:
         04:e4:34:39:a4:d3:f3:51:5f:cf:af:3b:01:e4:45:eb:ea:74:
         18:9c:a9:5e:14:5b:fd:85:87:48:f5:56:6e:32:9e:70:5a:b5:
         41:b3:55:a1:e2:0b:76:d5:5e:19:d0:d1:72:13:d3:7c:8a:b1:
         bb:55:25:86:7a:0c:e3:b0:5f:56:2a:2e:13:42:c6:cc:ef:20:
         bb:a4:1d:ad:d5:b3:cd:99:1b:aa:21:96:3a:85:43:cc:48:3b:
         24:5c:50:d6:59:a1:e4:84:59:a1:1e:06:cf:a5:a7:78:3f:fa:
         1c:3d:0d:c3:58:e0:55:45:53:b7:7a:07:29:5d:c1:07:6b:81:
         af:47:5b:0d:7f:c5:e1:2a:6a:1c:64:e0:93:9b:e4:1b:ee:00:
         6f:47:59:4f:e8:5b:22:78
-----BEGIN CERTIFICATE-----
MIIFbTCCA1WgAwIBAgIBAzANBgkqhkiG9w0BAQUFADCBmzELMAkGA1UEBhMCQkEx
CzAJBgNVBAgTAlJTMSEwHwYDVQQKExhFbGVrdHJvdGVobmlja2kgZmFrdWx0ZXQx
KzApBgNVBAsTIktyaXB0b2dyYWZpamEgaSByYWN1bmFyc2thIHphc3RpdGExDzAN
BgNVBAMTBnJvb3RjYTEeMBwGCSqGSIb3DQEJARYPcm9vdGNhQG1haWwuY29tMB4X
DTIxMDQxNzE0NTIyM1oXDTIyMDQxNzE0NTIyM1owgZAxCzAJBgNVBAYTAkJBMQsw
CQYDVQQIEwJSUzEhMB8GA1UEChMYRWxla3Ryb3RlaG5pY2tpIGZha3VsdGV0MSsw
KQYDVQQLEyJLcmlwdG9ncmFmaWphIGkgcmFjdW5hcnNrYSB6YXN0aXRhMQ4wDAYD
VQQDEwVjYXJhazEUMBIGCSqGSIb3DQEJARYFY2FyYWswggEiMA0GCSqGSIb3DQEB
AQUAA4IBDwAwggEKAoIBAQD3LwYgZ6oAsrfLYZYhny6uad3BTq8taFcDI5VHIrpb
Shc9rXzyai6Dxi0ftB99fiVPuwwSEO60A/Q1NzY/jINWAQOAm37ZIDJ3sPTgLAXm
5OvLF6R1CzN37vTzlU17J095tYvUkZHYa6x3ink9BcwzCKgHIT0fjjUx2NAFwxCi
ceYRMK8fN5MdogGXonzIitw/fXItga1KHjQRpXM1p3RgmpX3my+wKTADwf7bMxq9
AJ4B+tlMoXzTaU1mihCLNxedA/GK/oFt8hjwnb1SFL2imRwmEDbKoabofCY78hdd
v6MYOjRX9MUxFsV9IkxSf6hru2IZJ7vUFsfeXOG6MYUbAgMBAAGjgcQwgcEwCQYD
VR0TBAIwADATBgNVHSUEDDAKBggrBgEFBQcDAjAsBglghkgBhvhCAQ0EHxYdT3Bl
blNTTCBHZW5lcmF0ZWQgQ2VydGlmaWNhdGUwHQYDVR0OBBYEFK7j3WKRAZrT2P+y
uXuoanKk3tm8MB8GA1UdIwQYMBaAFI798XYbdUoPyZ/NFFAP8Eh2r2W4MDEGA1Ud
HwQqMCgwJqAkoCKGIGh0dHA6Ly8xOTIuMTY4LjIxLjg5L3Jvb3RjcmwucGVtMA0G
CSqGSIb3DQEBBQUAA4ICAQAmocQ49GHhzqPhNhzlC55yTnpTKAt+fDQxXpBH6PC/
3hQ0xx6csKwnD6+7QoDZrrj7WjahFsVEQtJH3xvbdDoROW5knc9GN2YQ2aa35bX+
QiyVzpCym25PbASnVCoRodB+HiE7oYcMZlKhO/laaLYB8XMabXKjfIBR1ku6mMqp
+5J94aJVIwpmJNDp24DSIjuF7/1590vlcpbNnI/AFjnD/j4HFaqOoc5pRMkjPUth
12t/yEDROCSAn+W2XNGmMow/N+SMOEvUKjKZrggpznGgUSTuxoflqFpyXK9dLoe9
7n1SP7rsSU+wnqjyg6op42uZlgpUWoWU2+K/zIDHgPtuLpTiZqyFqqRycXTod3Qh
ZGsWy6VyL3qg5A1PiSHuv76zGsbOv5NywUY0uUJft/738R6egB6aGWKDr+ofD53D
4Ws+ntJ93NpF2NTa/8EEzdjzvIv2OW3ayJZr5gDtYR49Xvr3+qTM+80E5DQ5pNPz
UV/PrzsB5EXr6nQYnKleFFv9hYdI9VZuMp5wWrVBs1Wh4gt21V4Z0NFyE9N8irG7
VSWGegzjsF9WKi4TQsbM7yC7pB2t1bPNmRuqIZY6hUPMSDskXFDWWaHkhFmhHgbP
pad4P/ocPQ3DWOBVRVO3egcpXcEHa4GvR1sNf8XhKmocZOCTm+Qb7gBvR1lP6Fsi
eA==
-----END CERTIFICATE-----
