Certificate:
    Data:
        Version: 3 (0x2)
        Serial Number: 3 (0x3)
        Signature Algorithm: sha1WithRSAEncryption
        Issuer: C=BA, ST=RS, O=Elektrotehnicki fakultet, OU=Kriptografija i racunarska zastita, CN=rootca/emailAddress=rootca@mail.com
        Validity
            Not Before: Apr 16 23:11:04 2021 GMT
            Not After : Apr 16 23:11:04 2022 GMT
        Subject: C=BA, ST=RS, O=Elektrotehnicki fakultet, OU=Kriptografija i racunarska zastita, CN=carak/emailAddress=carak@mail.com
        Subject Public Key Info:
            Public Key Algorithm: rsaEncryption
                RSA Public-Key: (2048 bit)
                Modulus:
                    00:9c:a4:94:a4:95:bf:58:4b:21:83:27:99:a3:88:
                    02:f0:51:7f:12:9d:46:ca:4b:27:92:6a:6b:21:a1:
                    f0:24:a6:9a:b4:19:60:d2:e3:d4:e9:af:ba:c6:b1:
                    a4:5d:33:55:a7:95:ff:b0:a6:00:37:3a:fe:50:d1:
                    29:4b:c6:e8:27:d4:10:4f:82:18:af:22:52:03:56:
                    b2:bc:82:b6:1b:bc:2a:14:71:54:f3:70:4e:bc:09:
                    fc:8c:da:19:66:7e:4a:9d:5c:7e:63:9f:53:25:52:
                    d6:b6:a1:33:85:87:96:48:3a:d7:9d:31:7b:e5:d7:
                    0c:7a:58:7c:da:b0:88:a6:23:11:b6:81:ab:5b:8d:
                    ee:48:93:c1:d8:c1:9d:ee:e3:31:b2:de:3a:65:4e:
                    c7:45:ce:a5:70:89:41:7e:1c:48:14:79:77:68:bc:
                    e7:82:6e:ec:f7:6a:c0:7b:d6:5e:99:d8:da:fe:5e:
                    e4:9e:62:03:5b:d2:47:2b:f9:80:45:c8:e6:db:9b:
                    05:2d:0b:ea:b2:a4:30:ab:1e:f8:62:78:ee:12:13:
                    f4:bb:6d:41:84:75:8d:ca:c6:f8:9d:88:58:f3:a1:
                    ad:50:18:f9:8f:4a:03:1f:cb:0d:c8:75:b5:b5:9b:
                    f9:14:c4:3b:92:f7:39:ac:ac:a3:78:ee:58:88:38:
                    43:eb
                Exponent: 65537 (0x10001)
        X509v3 extensions:
            X509v3 Basic Constraints: 
                CA:FALSE
            X509v3 Extended Key Usage: 
                TLS Web Client Authentication
            Netscape Comment: 
                OpenSSL Generated Certificate
            X509v3 Subject Key Identifier: 
                55:F3:37:DB:57:E9:50:0D:6F:BB:4F:FE:EC:05:EF:1B:9A:86:7A:4F
            X509v3 Authority Key Identifier: 
                keyid:8E:FD:F1:76:1B:75:4A:0F:C9:9F:CD:14:50:0F:F0:48:76:AF:65:B8

            X509v3 CRL Distribution Points: 

                Full Name:
                  URI:http://192.168.21.89/rootcrl.pem

    Signature Algorithm: sha1WithRSAEncryption
         da:6b:f3:67:4c:4e:70:4d:e1:0a:31:0e:59:aa:1f:8e:8d:43:
         cf:9b:ef:9e:4b:bc:44:ba:f3:83:ce:17:a9:33:6e:07:89:29:
         d9:a0:48:9a:cd:eb:d7:55:2e:e6:f2:9b:6d:c5:6d:15:96:83:
         d6:70:9c:9e:af:ab:99:06:41:5e:5e:f7:d2:04:f5:29:0c:95:
         31:b4:46:84:76:17:70:f9:50:00:02:e5:45:57:90:93:26:e0:
         a5:3c:0e:ac:f8:46:db:9f:92:b5:10:62:f0:03:63:ef:0f:c9:
         c4:33:e7:8d:a7:96:3d:10:23:d9:d3:d7:e8:3e:28:e0:90:23:
         10:0c:e3:25:f7:4a:ec:16:bd:89:e6:bc:92:0b:75:79:8a:47:
         ca:96:21:b5:63:5f:60:fc:5f:6c:ce:d2:04:71:87:d2:a3:28:
         3f:2a:c6:01:c5:08:e0:fb:a6:c3:03:94:aa:e3:2c:56:b1:db:
         09:9a:96:7b:6f:78:57:4c:09:32:71:63:a1:a5:2d:c0:99:bd:
         35:7c:a3:ca:cc:80:b6:13:2a:ba:8b:d5:03:e8:ca:67:c5:72:
         d7:ca:e0:0b:10:74:38:05:c6:f3:90:a0:49:56:30:3d:53:89:
         06:13:6f:c0:2a:d9:5e:62:02:3e:49:6d:5f:7c:86:11:c6:0c:
         fe:82:a8:ba:bd:ba:ce:de:d0:29:91:89:81:fd:12:9b:38:af:
         df:6a:bd:0f:03:cd:68:c4:e3:dd:b5:36:e2:ee:3f:0d:ac:06:
         0b:2f:ed:f6:3e:0a:70:72:a0:0b:04:5a:5e:43:d5:20:df:e2:
         fb:c9:5f:9c:ea:8d:af:97:f6:89:75:75:f1:05:7e:33:e0:e3:
         a9:8b:b7:8e:76:85:a6:1e:59:7a:0d:11:dd:3a:60:31:30:6d:
         65:8b:11:aa:68:30:bb:4b:f9:dc:66:bc:b8:bd:50:e6:23:06:
         5c:cf:68:95:8b:76:27:6f:39:ea:a3:2b:49:6a:be:e7:70:ae:
         42:b4:9a:d0:23:88:f8:dd:66:9f:d5:de:33:7b:cf:3c:77:65:
         60:d1:24:01:62:d2:4c:16:f8:bd:89:c4:28:ab:ee:80:d3:5e:
         6e:54:c3:b5:19:cf:22:56:cb:8a:f2:66:38:09:13:e1:33:be:
         67:90:7d:ba:6c:be:0a:f3:86:84:1b:d5:26:9d:22:51:fa:dc:
         f3:64:d5:34:d7:f8:ad:f8:11:7a:10:fc:b7:16:7b:d6:e0:f1:
         85:4c:d6:ec:13:ff:fb:86:87:5c:df:fc:ed:ff:b6:c8:82:73:
         e4:9b:9c:48:55:10:14:37:36:a0:72:6a:41:d2:ff:86:c5:61:
         49:b3:db:bf:2c:b1:7a:32
-----BEGIN CERTIFICATE-----
MIIFdjCCA16gAwIBAgIBAzANBgkqhkiG9w0BAQUFADCBmzELMAkGA1UEBhMCQkEx
CzAJBgNVBAgTAlJTMSEwHwYDVQQKExhFbGVrdHJvdGVobmlja2kgZmFrdWx0ZXQx
KzApBgNVBAsTIktyaXB0b2dyYWZpamEgaSByYWN1bmFyc2thIHphc3RpdGExDzAN
BgNVBAMTBnJvb3RjYTEeMBwGCSqGSIb3DQEJARYPcm9vdGNhQG1haWwuY29tMB4X
DTIxMDQxNjIzMTEwNFoXDTIyMDQxNjIzMTEwNFowgZkxCzAJBgNVBAYTAkJBMQsw
CQYDVQQIEwJSUzEhMB8GA1UEChMYRWxla3Ryb3RlaG5pY2tpIGZha3VsdGV0MSsw
KQYDVQQLEyJLcmlwdG9ncmFmaWphIGkgcmFjdW5hcnNrYSB6YXN0aXRhMQ4wDAYD
VQQDEwVjYXJhazEdMBsGCSqGSIb3DQEJARYOY2FyYWtAbWFpbC5jb20wggEiMA0G
CSqGSIb3DQEBAQUAA4IBDwAwggEKAoIBAQCcpJSklb9YSyGDJ5mjiALwUX8SnUbK
SyeSamshofAkppq0GWDS49Tpr7rGsaRdM1Wnlf+wpgA3Ov5Q0SlLxugn1BBPghiv
IlIDVrK8grYbvCoUcVTzcE68CfyM2hlmfkqdXH5jn1MlUta2oTOFh5ZIOtedMXvl
1wx6WHzasIimIxG2gatbje5Ik8HYwZ3u4zGy3jplTsdFzqVwiUF+HEgUeXdovOeC
buz3asB71l6Z2Nr+XuSeYgNb0kcr+YBFyObbmwUtC+qypDCrHvhieO4SE/S7bUGE
dY3KxvidiFjzoa1QGPmPSgMfyw3IdbW1m/kUxDuS9zmsrKN47liIOEPrAgMBAAGj
gcQwgcEwCQYDVR0TBAIwADATBgNVHSUEDDAKBggrBgEFBQcDAjAsBglghkgBhvhC
AQ0EHxYdT3BlblNTTCBHZW5lcmF0ZWQgQ2VydGlmaWNhdGUwHQYDVR0OBBYEFFXz
N9tX6VANb7tP/uwF7xuahnpPMB8GA1UdIwQYMBaAFI798XYbdUoPyZ/NFFAP8Eh2
r2W4MDEGA1UdHwQqMCgwJqAkoCKGIGh0dHA6Ly8xOTIuMTY4LjIxLjg5L3Jvb3Rj
cmwucGVtMA0GCSqGSIb3DQEBBQUAA4ICAQDaa/NnTE5wTeEKMQ5Zqh+OjUPPm++e
S7xEuvODzhepM24HiSnZoEiazevXVS7m8pttxW0VloPWcJyer6uZBkFeXvfSBPUp
DJUxtEaEdhdw+VAAAuVFV5CTJuClPA6s+Ebbn5K1EGLwA2PvD8nEM+eNp5Y9ECPZ
09foPijgkCMQDOMl90rsFr2J5rySC3V5ikfKliG1Y19g/F9sztIEcYfSoyg/KsYB
xQjg+6bDA5Sq4yxWsdsJmpZ7b3hXTAkycWOhpS3Amb01fKPKzIC2Eyq6i9UD6Mpn
xXLXyuALEHQ4BcbzkKBJVjA9U4kGE2/AKtleYgI+SW1ffIYRxgz+gqi6vbrO3tAp
kYmB/RKbOK/far0PA81oxOPdtTbi7j8NrAYLL+32PgpwcqALBFpeQ9Ug3+L7yV+c
6o2vl/aJdXXxBX4z4OOpi7eOdoWmHll6DRHdOmAxMG1lixGqaDC7S/ncZry4vVDm
IwZcz2iVi3YnbznqoytJar7ncK5CtJrQI4j43Waf1d4ze888d2Vg0SQBYtJMFvi9
icQoq+6A015uVMO1Gc8iVsuK8mY4CRPhM75nkH26bL4K84aEG9UmnSJR+tzzZNU0
1/it+BF6EPy3FnvW4PGFTNbsE//7hodc3/zt/7bIgnPkm5xIVRAUNzagcmpB0v+G
xWFJs9u/LLF6Mg==
-----END CERTIFICATE-----
