Certificate:
    Data:
        Version: 3 (0x2)
        Serial Number: 1 (0x1)
        Signature Algorithm: sha1WithRSAEncryption
        Issuer: C=BA, ST=RS, O=Elektrotehnicki fakultet, OU=Kriptografija i racunarska zastita, CN=CA/emailAddress=ca@secur.ity
        Validity
            Not Before: Apr 12 14:46:18 2021 GMT
            Not After : Apr 12 14:46:18 2022 GMT
        Subject: C=BA, ST=RS, O=Elektrotehnicki fakultet, OU=Kriptografija i racunarska zastita, CN=carak/emailAddress=carak@mail.com
        Subject Public Key Info:
            Public Key Algorithm: rsaEncryption
                RSA Public-Key: (2048 bit)
                Modulus:
                    00:b2:f3:43:71:2d:2a:43:6a:99:fd:62:74:62:23:
                    9f:71:3e:ac:51:cb:cc:ef:08:58:fa:67:72:93:29:
                    ea:9a:39:42:9b:68:02:a4:af:13:2c:4b:82:eb:9a:
                    4d:b5:b0:f4:32:22:9a:e4:9d:50:f2:25:73:eb:4f:
                    98:51:b5:7c:96:66:8b:97:bd:6e:64:29:0d:69:7b:
                    0a:65:a4:7f:fc:12:cd:a8:77:cb:45:b7:2c:8b:23:
                    8a:77:12:6b:d3:82:54:78:9c:b9:44:48:cc:35:9d:
                    a1:4c:57:34:a2:19:1f:99:50:63:19:5b:dc:96:6e:
                    fb:7b:16:07:b0:a3:d5:fd:50:9f:55:ad:b8:5e:4f:
                    18:e0:fc:43:f9:62:e6:ce:7d:1f:93:71:db:02:84:
                    58:df:6c:59:56:80:ba:02:ac:e1:98:c6:77:4a:c3:
                    8f:47:99:13:62:77:54:c2:39:8e:bf:20:9b:8b:41:
                    01:a3:dd:cc:7c:61:13:44:de:4a:38:48:9a:5a:b6:
                    de:c1:f6:60:4b:27:ce:65:f2:68:e6:32:7b:f9:ce:
                    f6:15:95:b9:ce:ad:e3:df:93:3c:04:9c:66:a9:47:
                    ea:fd:8e:e1:52:f2:43:05:94:f3:34:44:33:01:a5:
                    42:82:55:f2:d3:5f:7e:c8:d8:65:88:e9:86:50:c8:
                    bd:59
                Exponent: 65537 (0x10001)
        X509v3 extensions:
            X509v3 Basic Constraints: 
                CA:FALSE
            X509v3 Extended Key Usage: 
                TLS Web Client Authentication
            Netscape Comment: 
                OpenSSL Generated Certificate
            X509v3 Subject Key Identifier: 
                08:E8:C0:5E:CC:8D:1D:4D:9D:D0:BD:36:24:13:6A:FD:AA:12:5D:36
            X509v3 Authority Key Identifier: 
                keyid:A0:09:CF:9F:B0:C6:A3:D8:B4:64:2F:AC:BC:E0:94:55:EB:A1:16:90

            X509v3 CRL Distribution Points: 

                Full Name:
                  URI:http://192.168.21.89/rootcrl.pem

    Signature Algorithm: sha1WithRSAEncryption
         94:7d:76:c5:7f:a3:4c:e9:a9:09:07:3e:c4:75:c8:2a:bc:f1:
         be:d2:b7:2e:01:2a:00:1e:90:93:92:db:c9:8a:b9:14:20:a1:
         11:c9:27:80:40:7e:a0:51:70:e7:f7:3c:b4:ce:aa:23:0e:e8:
         29:4d:18:79:ff:9a:42:17:f9:28:84:da:97:b5:b6:bb:f5:32:
         d3:4d:34:12:e6:fd:6f:d5:d0:eb:b3:f5:e2:eb:6f:74:4b:02:
         d2:18:94:a0:dc:5b:e3:9d:80:4a:83:b8:ee:cd:85:7a:00:93:
         8c:29:6f:8c:df:1f:fa:2d:b8:6c:94:5c:b8:ac:ce:85:93:6d:
         84:be:fa:5c:f9:54:7d:d3:cb:a7:8f:1a:60:22:4b:fb:82:15:
         4c:47:d6:50:86:a1:65:6a:33:b1:b3:2a:41:a3:c1:00:fb:a9:
         7f:7d:e9:f2:1c:c9:68:b8:25:e6:8f:a5:ff:e3:67:2f:4e:52:
         85:b7:3a:9c:8d:ff:ed:50:d3:19:e3:75:b8:a8:2b:77:89:51:
         49:ea:c8:50:4c:28:ff:8f:13:26:57:d5:20:45:77:17:2d:a1:
         d2:18:2f:c2:49:a2:b9:bf:75:81:ad:4f:a3:df:06:37:91:ef:
         7d:63:50:f5:2e:22:9d:b1:83:1b:a1:fb:d1:bd:e4:cd:1c:b2:
         8f:16:ab:1a:f1:59:b9:f6:64:7a:43:0f:38:85:07:af:f7:ef:
         9a:8a:77:fc:8a:19:cc:63:65:6c:12:3f:ec:4b:2c:22:98:7c:
         c8:89:8d:be:08:d3:be:18:62:c4:b6:3a:da:53:85:fc:69:9f:
         2b:2a:a2:2f:e0:a5:7e:27:d9:97:52:69:cf:78:1c:d6:75:cf:
         ec:6a:d2:5b:fb:8a:35:0e:38:63:93:ee:50:99:8a:82:0a:fe:
         e1:a1:ae:16:3c:22:be:0a:a0:e7:da:d4:8b:40:42:8b:32:f6:
         f7:e8:d0:e1:42:47:91:b6:f7:ae:a3:29:45:f0:b4:04:a7:1d:
         87:14:d8:1e:7a:ad:75:ac:fe:1c:49:bb:8f:d5:52:ef:22:3e:
         a8:f0:ee:6d:e2:06:bc:fe:c8:53:5c:14:53:15:11:6e:73:86:
         74:f2:94:fa:06:24:97:f4:d5:72:01:c8:3c:42:3c:79:f1:49:
         a2:d0:7a:af:cc:97:3a:a9:45:50:07:5e:7b:b5:7e:81:7b:f5:
         67:45:5e:6e:67:ba:43:ee:15:58:e6:3c:2c:2f:0e:c9:c5:ff:
         ad:94:4c:c4:dc:93:4e:49:c2:da:b6:9a:4c:61:b0:ce:c7:67:
         09:80:c3:2d:e0:cf:92:24:78:40:1d:bd:df:8d:4b:97:dc:5b:
         ea:3c:9e:2c:9c:e5:4c:80
-----BEGIN CERTIFICATE-----
MIIFbzCCA1egAwIBAgIBATANBgkqhkiG9w0BAQUFADCBlDELMAkGA1UEBhMCQkEx
CzAJBgNVBAgTAlJTMSEwHwYDVQQKExhFbGVrdHJvdGVobmlja2kgZmFrdWx0ZXQx
KzApBgNVBAsTIktyaXB0b2dyYWZpamEgaSByYWN1bmFyc2thIHphc3RpdGExCzAJ
BgNVBAMTAkNBMRswGQYJKoZIhvcNAQkBFgxjYUBzZWN1ci5pdHkwHhcNMjEwNDEy
MTQ0NjE4WhcNMjIwNDEyMTQ0NjE4WjCBmTELMAkGA1UEBhMCQkExCzAJBgNVBAgT
AlJTMSEwHwYDVQQKExhFbGVrdHJvdGVobmlja2kgZmFrdWx0ZXQxKzApBgNVBAsT
IktyaXB0b2dyYWZpamEgaSByYWN1bmFyc2thIHphc3RpdGExDjAMBgNVBAMTBWNh
cmFrMR0wGwYJKoZIhvcNAQkBFg5jYXJha0BtYWlsLmNvbTCCASIwDQYJKoZIhvcN
AQEBBQADggEPADCCAQoCggEBALLzQ3EtKkNqmf1idGIjn3E+rFHLzO8IWPpncpMp
6po5QptoAqSvEyxLguuaTbWw9DIimuSdUPIlc+tPmFG1fJZmi5e9bmQpDWl7CmWk
f/wSzah3y0W3LIsjincSa9OCVHicuURIzDWdoUxXNKIZH5lQYxlb3JZu+3sWB7Cj
1f1Qn1WtuF5PGOD8Q/li5s59H5Nx2wKEWN9sWVaAugKs4ZjGd0rDj0eZE2J3VMI5
jr8gm4tBAaPdzHxhE0TeSjhImlq23sH2YEsnzmXyaOYye/nO9hWVuc6t49+TPASc
ZqlH6v2O4VLyQwWU8zREMwGlQoJV8tNffsjYZYjphlDIvVkCAwEAAaOBxDCBwTAJ
BgNVHRMEAjAAMBMGA1UdJQQMMAoGCCsGAQUFBwMCMCwGCWCGSAGG+EIBDQQfFh1P
cGVuU1NMIEdlbmVyYXRlZCBDZXJ0aWZpY2F0ZTAdBgNVHQ4EFgQUCOjAXsyNHU2d
0L02JBNq/aoSXTYwHwYDVR0jBBgwFoAUoAnPn7DGo9i0ZC+svOCUVeuhFpAwMQYD
VR0fBCowKDAmoCSgIoYgaHR0cDovLzE5Mi4xNjguMjEuODkvcm9vdGNybC5wZW0w
DQYJKoZIhvcNAQEFBQADggIBAJR9dsV/o0zpqQkHPsR1yCq88b7Sty4BKgAekJOS
28mKuRQgoRHJJ4BAfqBRcOf3PLTOqiMO6ClNGHn/mkIX+SiE2pe1trv1MtNNNBLm
/W/V0Ouz9eLrb3RLAtIYlKDcW+OdgEqDuO7NhXoAk4wpb4zfH/otuGyUXLiszoWT
bYS++lz5VH3Ty6ePGmAiS/uCFUxH1lCGoWVqM7GzKkGjwQD7qX996fIcyWi4JeaP
pf/jZy9OUoW3OpyN/+1Q0xnjdbioK3eJUUnqyFBMKP+PEyZX1SBFdxctodIYL8JJ
orm/dYGtT6PfBjeR731jUPUuIp2xgxuh+9G95M0cso8WqxrxWbn2ZHpDDziFB6/3
75qKd/yKGcxjZWwSP+xLLCKYfMiJjb4I074YYsS2OtpThfxpnysqoi/gpX4n2ZdS
ac94HNZ1z+xq0lv7ijUOOGOT7lCZioIK/uGhrhY8Ir4KoOfa1ItAQosy9vfo0OFC
R5G2966jKUXwtASnHYcU2B56rXWs/hxJu4/VUu8iPqjw7m3iBrz+yFNcFFMVEW5z
hnTylPoGJJf01XIByDxCPHnxSaLQeq/MlzqpRVAHXnu1foF79WdFXm5nukPuFVjm
PCwvDsnF/62UTMTck05Jwtq2mkxhsM7HZwmAwy3gz5IkeEAdvd+NS5fcW+o8niyc
5UyA
-----END CERTIFICATE-----
