Certificate:
    Data:
        Version: 3 (0x2)
        Serial Number: 3 (0x3)
        Signature Algorithm: sha1WithRSAEncryption
        Issuer: C=BA, ST=RS, O=Elektrotehnicki fakultet, OU=Kriptografija i racunarska zastita, CN=CA/emailAddress=ca@secur.ity
        Validity
            Not Before: Apr 15 21:31:20 2021 GMT
            Not After : Apr 15 21:31:20 2022 GMT
        Subject: C=BA, ST=RS, O=Elektrotehnicki fakultet, OU=Kriptografija i racunarska zastita, CN=fifi/emailAddress=fifi@mail.com
        Subject Public Key Info:
            Public Key Algorithm: rsaEncryption
                RSA Public-Key: (2048 bit)
                Modulus:
                    00:cd:36:a9:9d:49:c7:d6:af:91:41:62:a2:f5:e7:
                    5c:dd:bc:63:ec:4d:36:2b:10:3f:ba:7c:9a:6c:d2:
                    0e:3f:c9:d1:50:41:3b:bb:05:59:65:70:c6:5e:8e:
                    e0:98:37:db:ea:3b:83:f7:27:a4:83:a5:9c:c9:b3:
                    1d:08:2c:6b:1a:af:c2:fe:ec:a3:63:1d:67:3b:f5:
                    ca:c8:29:cd:3a:3c:39:05:92:68:32:71:9d:d3:6b:
                    9b:23:34:44:62:2b:8b:1b:fa:b9:03:36:c8:ad:43:
                    aa:ac:aa:4f:6f:e2:cc:9c:59:02:93:7a:d2:4a:43:
                    75:07:7e:04:d0:0d:55:50:03:48:1d:94:d9:fc:7e:
                    30:63:af:0c:e3:ab:ad:24:b0:6c:f3:56:33:ae:91:
                    45:aa:90:51:24:bf:67:e2:26:66:7d:a0:fd:08:31:
                    17:40:c8:97:c9:c2:50:f3:b1:79:f4:33:3b:ba:aa:
                    40:e1:73:ce:54:f2:9e:ee:e5:ff:ca:8c:7c:88:ea:
                    78:61:a6:18:ce:7f:3e:88:f7:24:2e:91:8f:6d:ce:
                    41:39:1b:73:1f:59:26:3d:00:3d:4f:df:80:22:f0:
                    a7:7c:e3:b0:2a:fb:a7:87:2c:32:9e:78:63:59:8d:
                    d2:fc:ae:f6:4c:1e:e1:aa:73:bb:61:30:06:92:32:
                    36:a7
                Exponent: 65537 (0x10001)
        X509v3 extensions:
            X509v3 Basic Constraints: 
                CA:FALSE
            X509v3 Extended Key Usage: 
                TLS Web Client Authentication
            Netscape Comment: 
                OpenSSL Generated Certificate
            X509v3 Subject Key Identifier: 
                B4:F7:08:25:2C:7D:0E:FA:B8:C6:53:D5:0B:40:50:D2:42:56:E8:3F
            X509v3 Authority Key Identifier: 
                keyid:A0:09:CF:9F:B0:C6:A3:D8:B4:64:2F:AC:BC:E0:94:55:EB:A1:16:90

            X509v3 CRL Distribution Points: 

                Full Name:
                  URI:http://192.168.21.89/rootcrl.pem

    Signature Algorithm: sha1WithRSAEncryption
         9f:05:f8:45:ee:7b:6c:36:bd:f2:57:d3:b9:19:16:62:76:27:
         f8:ed:3b:2b:a3:ea:ac:30:f2:89:f9:05:55:be:8e:92:44:93:
         87:fe:73:2c:54:85:c8:fd:28:0c:a5:be:77:d0:b9:1d:69:bf:
         70:14:f7:5b:f0:88:3f:90:88:12:40:b3:a6:20:83:52:38:7e:
         00:a3:05:ef:eb:ef:15:7f:cb:b3:45:5b:2b:3d:ed:87:f0:50:
         6d:6f:e9:e6:98:fb:ea:a0:bf:b1:cd:14:3a:6d:94:86:5f:a3:
         91:87:1d:34:d6:a2:b8:3f:28:bd:c3:0e:42:7a:80:68:5b:2e:
         8f:94:2b:14:5f:f9:85:14:6d:64:44:51:63:87:d9:6d:fc:60:
         f2:14:02:75:4a:a3:22:9b:c2:67:62:c0:38:2a:5d:94:e8:ae:
         b6:f0:00:12:41:65:18:37:37:ff:76:fa:b3:f2:b9:eb:a5:5d:
         c8:ba:13:4e:eb:c4:91:3b:22:e8:30:15:de:23:f0:72:4e:3a:
         ca:80:80:08:e9:78:40:9f:27:5a:d4:c3:29:4c:4a:c9:1c:50:
         58:cf:6f:60:e3:0c:72:10:7f:db:52:cd:de:51:0e:d6:c9:cd:
         76:f4:68:52:05:b7:ad:23:cb:21:99:28:55:79:49:4f:e0:69:
         d4:cb:bd:24:2a:4a:1a:dd:ff:ea:52:94:b9:56:1f:df:6d:9b:
         b8:a7:12:49:d4:83:ee:d2:05:d5:3a:de:7f:4b:5e:7f:81:e4:
         29:2a:84:f6:42:98:ff:5e:f7:a6:fc:ff:f2:a1:22:52:3b:a3:
         fb:b9:eb:66:bd:91:42:c8:19:d6:5b:c4:92:f1:e4:44:be:ea:
         c2:2b:a1:6b:51:92:af:2e:9f:dc:ce:88:62:72:93:8c:1c:ee:
         02:22:ef:13:85:4d:62:09:28:4f:82:28:e3:6a:25:72:b6:fe:
         69:2a:2c:1d:c3:01:1b:54:3c:2d:fe:53:35:f5:a5:fd:9b:86:
         9b:fb:6e:9d:35:1f:d9:39:12:e7:83:06:47:53:a7:f0:b3:34:
         ca:9a:e3:91:31:7d:6d:56:04:2e:60:ce:1e:9e:23:29:11:fb:
         b8:85:d4:fd:52:3b:ed:66:aa:33:9e:56:f5:9c:c3:85:1f:c6:
         52:2b:c7:a5:37:38:c8:eb:32:0c:64:fe:dc:0c:d2:a8:84:b8:
         21:c4:a4:e5:2d:19:af:25:b2:90:65:9a:65:27:85:13:8d:8f:
         6e:e6:5e:fd:20:bd:47:c9:6e:05:60:13:58:f4:97:f8:88:fc:
         8c:a0:42:30:0e:10:d0:06:94:c8:8b:fe:1f:2f:6b:0f:e7:86:
         21:b5:30:0d:2d:a6:44:a4
-----BEGIN CERTIFICATE-----
MIIFbTCCA1WgAwIBAgIBAzANBgkqhkiG9w0BAQUFADCBlDELMAkGA1UEBhMCQkEx
CzAJBgNVBAgTAlJTMSEwHwYDVQQKExhFbGVrdHJvdGVobmlja2kgZmFrdWx0ZXQx
KzApBgNVBAsTIktyaXB0b2dyYWZpamEgaSByYWN1bmFyc2thIHphc3RpdGExCzAJ
BgNVBAMTAkNBMRswGQYJKoZIhvcNAQkBFgxjYUBzZWN1ci5pdHkwHhcNMjEwNDE1
MjEzMTIwWhcNMjIwNDE1MjEzMTIwWjCBlzELMAkGA1UEBhMCQkExCzAJBgNVBAgT
AlJTMSEwHwYDVQQKExhFbGVrdHJvdGVobmlja2kgZmFrdWx0ZXQxKzApBgNVBAsT
IktyaXB0b2dyYWZpamEgaSByYWN1bmFyc2thIHphc3RpdGExDTALBgNVBAMTBGZp
ZmkxHDAaBgkqhkiG9w0BCQEWDWZpZmlAbWFpbC5jb20wggEiMA0GCSqGSIb3DQEB
AQUAA4IBDwAwggEKAoIBAQDNNqmdScfWr5FBYqL151zdvGPsTTYrED+6fJps0g4/
ydFQQTu7BVllcMZejuCYN9vqO4P3J6SDpZzJsx0ILGsar8L+7KNjHWc79crIKc06
PDkFkmgycZ3Ta5sjNERiK4sb+rkDNsitQ6qsqk9v4sycWQKTetJKQ3UHfgTQDVVQ
A0gdlNn8fjBjrwzjq60ksGzzVjOukUWqkFEkv2fiJmZ9oP0IMRdAyJfJwlDzsXn0
Mzu6qkDhc85U8p7u5f/KjHyI6nhhphjOfz6I9yQukY9tzkE5G3MfWSY9AD1P34Ai
8Kd847Aq+6eHLDKeeGNZjdL8rvZMHuGqc7thMAaSMjanAgMBAAGjgcQwgcEwCQYD
VR0TBAIwADATBgNVHSUEDDAKBggrBgEFBQcDAjAsBglghkgBhvhCAQ0EHxYdT3Bl
blNTTCBHZW5lcmF0ZWQgQ2VydGlmaWNhdGUwHQYDVR0OBBYEFLT3CCUsfQ76uMZT
1QtAUNJCVug/MB8GA1UdIwQYMBaAFKAJz5+wxqPYtGQvrLzglFXroRaQMDEGA1Ud
HwQqMCgwJqAkoCKGIGh0dHA6Ly8xOTIuMTY4LjIxLjg5L3Jvb3RjcmwucGVtMA0G
CSqGSIb3DQEBBQUAA4ICAQCfBfhF7ntsNr3yV9O5GRZidif47Tsro+qsMPKJ+QVV
vo6SRJOH/nMsVIXI/SgMpb530Lkdab9wFPdb8Ig/kIgSQLOmIINSOH4AowXv6+8V
f8uzRVsrPe2H8FBtb+nmmPvqoL+xzRQ6bZSGX6ORhx001qK4Pyi9ww5CeoBoWy6P
lCsUX/mFFG1kRFFjh9lt/GDyFAJ1SqMim8JnYsA4Kl2U6K628AASQWUYNzf/dvqz
8rnrpV3IuhNO68SROyLoMBXeI/ByTjrKgIAI6XhAnyda1MMpTErJHFBYz29g4wxy
EH/bUs3eUQ7Wyc129GhSBbetI8shmShVeUlP4GnUy70kKkoa3f/qUpS5Vh/fbZu4
pxJJ1IPu0gXVOt5/S15/geQpKoT2Qpj/Xvem/P/yoSJSO6P7uetmvZFCyBnWW8SS
8eREvurCK6FrUZKvLp/czohicpOMHO4CIu8ThU1iCShPgijjaiVytv5pKiwdwwEb
VDwt/lM19aX9m4ab+26dNR/ZORLngwZHU6fwszTKmuORMX1tVgQuYM4eniMpEfu4
hdT9UjvtZqoznlb1nMOFH8ZSK8elNzjI6zIMZP7cDNKohLghxKTlLRmvJbKQZZpl
J4UTjY9u5l79IL1HyW4FYBNY9Jf4iPyMoEIwDhDQBpTIi/4fL2sP54YhtTANLaZE
pA==
-----END CERTIFICATE-----
