Certificate:
    Data:
        Version: 3 (0x2)
        Serial Number: 2 (0x2)
        Signature Algorithm: sha1WithRSAEncryption
        Issuer: C=BA, ST=RS, O=Elektrotehnicki fakultet, OU=Kriptografija i racunarska zastita, CN=CA/emailAddress=ca@secur.ity
        Validity
            Not Before: Apr 12 14:47:22 2021 GMT
            Not After : Apr 12 14:47:22 2022 GMT
        Subject: C=BA, ST=RS, O=Elektrotehnicki fakultet, OU=Kriptografija i racunarska zastita, CN=kiki/emailAddress=kiki@mail.com
        Subject Public Key Info:
            Public Key Algorithm: rsaEncryption
                RSA Public-Key: (2048 bit)
                Modulus:
                    00:bf:18:10:ba:e9:66:90:5e:24:06:b9:53:60:c5:
                    f0:68:37:bf:a4:46:7f:ac:e5:0b:47:8d:56:fe:13:
                    fb:20:03:72:8b:9f:7e:c8:bc:87:1d:ef:28:ee:be:
                    04:82:2b:6e:df:26:7f:d4:02:1a:45:1c:ac:85:7e:
                    03:99:76:3f:42:58:92:8b:42:d1:0a:b5:72:c6:1d:
                    07:df:5a:cc:9a:bc:ac:8b:3c:95:12:60:d3:c6:49:
                    47:6a:19:9e:5d:76:bd:fc:59:3b:ae:15:5f:c7:fb:
                    0d:fe:98:ff:c3:77:e5:77:4c:04:52:2b:4f:7c:97:
                    e6:05:3e:47:6b:cc:cd:5f:5b:43:f0:57:5b:a5:d7:
                    5b:51:66:16:c9:68:4d:2d:d1:a0:55:de:07:35:6d:
                    a9:be:b9:cc:b5:13:09:56:a7:c8:06:c3:55:61:58:
                    0f:99:84:5f:85:7d:34:58:2f:87:80:95:3e:46:e5:
                    a8:4a:eb:f5:ff:b9:86:bc:32:e0:f2:58:3e:26:48:
                    29:59:6f:97:d2:bb:35:d1:b3:0f:3a:21:63:ee:29:
                    58:3a:ef:23:72:2e:96:a9:78:7a:24:ee:57:55:75:
                    57:27:72:b2:fd:3a:1f:fa:bd:d0:ca:58:34:be:ee:
                    c2:3e:d9:75:f5:c9:46:36:0c:aa:b3:6f:be:87:7a:
                    57:bb
                Exponent: 65537 (0x10001)
        X509v3 extensions:
            X509v3 Basic Constraints: 
                CA:FALSE
            X509v3 Extended Key Usage: 
                TLS Web Client Authentication
            Netscape Comment: 
                OpenSSL Generated Certificate
            X509v3 Subject Key Identifier: 
                91:D4:15:D9:25:DC:91:D5:7A:DB:B7:1D:D5:90:EA:A4:B9:F4:7E:96
            X509v3 Authority Key Identifier: 
                keyid:A0:09:CF:9F:B0:C6:A3:D8:B4:64:2F:AC:BC:E0:94:55:EB:A1:16:90

            X509v3 CRL Distribution Points: 

                Full Name:
                  URI:http://192.168.21.89/rootcrl.pem

    Signature Algorithm: sha1WithRSAEncryption
         28:2d:68:67:3d:b0:af:dd:60:b3:53:d3:42:80:77:60:1a:61:
         0a:be:0f:f8:db:95:5d:e3:47:60:ba:19:68:a2:c2:12:be:0b:
         dd:31:52:58:f7:8a:1c:a0:e9:8b:c4:67:2d:73:9f:4a:c9:52:
         67:31:43:44:2a:95:06:4d:dc:47:38:d8:ad:c0:9b:39:e0:a4:
         28:cb:dc:c6:28:d5:c3:5e:1c:a2:23:87:17:46:3d:02:a1:d2:
         67:c1:b1:57:63:54:21:39:3a:3f:88:35:be:90:a2:0b:80:da:
         72:64:15:24:03:84:27:c5:ff:cd:5c:28:ee:11:a5:94:37:35:
         f3:23:0a:ad:f7:25:5c:29:92:56:41:5a:dc:9e:64:75:69:e2:
         d0:44:b1:71:e6:e5:e6:ab:09:ce:f7:ee:fd:1f:17:80:d4:60:
         47:74:e9:7a:eb:44:3c:bf:9c:7e:75:44:93:de:46:bc:7b:88:
         8b:e2:d2:4d:0e:27:d8:6f:e4:c5:13:f7:35:01:20:7a:f1:e1:
         63:18:4a:29:48:28:69:b4:ca:ce:9f:65:c5:e1:80:e1:6a:df:
         b2:bc:6f:b0:44:ea:16:3b:d6:c9:7f:79:86:f3:ba:df:d0:91:
         1b:01:fc:ba:48:91:cc:9f:03:d2:eb:a2:81:06:b4:ac:9a:28:
         0e:ef:37:12:db:f3:e2:52:3e:71:12:eb:57:b9:bf:c3:4e:d6:
         fc:20:d1:3a:63:61:15:9f:a5:9e:3b:8a:22:3d:c2:ff:59:be:
         4c:8f:a9:bb:66:05:ed:87:74:a7:f6:e2:ad:df:58:2a:46:0b:
         de:af:26:18:53:51:05:13:d2:cb:04:36:15:d7:1f:97:e3:3f:
         f7:e6:68:b3:5a:62:b3:19:0e:45:ed:87:71:c2:3e:22:8d:b4:
         6e:89:12:29:6c:37:50:aa:33:c6:7b:7e:1f:0d:9b:16:14:5c:
         ed:26:bb:cb:15:d0:16:77:7f:b5:84:9e:de:cb:a5:24:48:b6:
         f9:1c:b6:c6:dd:f8:5b:9a:cd:83:20:b5:9b:86:51:76:0b:d0:
         5f:02:20:c2:a6:49:8b:0e:58:2a:97:55:8e:e7:05:17:91:ff:
         85:0c:37:df:07:96:b6:e2:ad:d9:f9:92:75:db:7f:42:18:4f:
         75:cd:f7:06:e6:03:5a:e8:39:65:8b:35:7d:7e:f5:55:55:0c:
         93:33:91:bd:23:31:0d:2d:a6:4c:c7:80:26:f6:17:d3:33:08:
         c9:c5:fa:6e:c8:24:08:03:eb:30:a9:57:e8:ea:0f:cc:17:ba:
         81:41:a8:cf:a8:b0:b3:8d:ac:1c:c6:87:fa:79:94:a3:c7:6b:
         33:b2:4a:90:cc:42:c7:5a
-----BEGIN CERTIFICATE-----
MIIFbTCCA1WgAwIBAgIBAjANBgkqhkiG9w0BAQUFADCBlDELMAkGA1UEBhMCQkEx
CzAJBgNVBAgTAlJTMSEwHwYDVQQKExhFbGVrdHJvdGVobmlja2kgZmFrdWx0ZXQx
KzApBgNVBAsTIktyaXB0b2dyYWZpamEgaSByYWN1bmFyc2thIHphc3RpdGExCzAJ
BgNVBAMTAkNBMRswGQYJKoZIhvcNAQkBFgxjYUBzZWN1ci5pdHkwHhcNMjEwNDEy
MTQ0NzIyWhcNMjIwNDEyMTQ0NzIyWjCBlzELMAkGA1UEBhMCQkExCzAJBgNVBAgT
AlJTMSEwHwYDVQQKExhFbGVrdHJvdGVobmlja2kgZmFrdWx0ZXQxKzApBgNVBAsT
IktyaXB0b2dyYWZpamEgaSByYWN1bmFyc2thIHphc3RpdGExDTALBgNVBAMTBGtp
a2kxHDAaBgkqhkiG9w0BCQEWDWtpa2lAbWFpbC5jb20wggEiMA0GCSqGSIb3DQEB
AQUAA4IBDwAwggEKAoIBAQC/GBC66WaQXiQGuVNgxfBoN7+kRn+s5QtHjVb+E/sg
A3KLn37IvIcd7yjuvgSCK27fJn/UAhpFHKyFfgOZdj9CWJKLQtEKtXLGHQffWsya
vKyLPJUSYNPGSUdqGZ5ddr38WTuuFV/H+w3+mP/Dd+V3TARSK098l+YFPkdrzM1f
W0PwV1ul11tRZhbJaE0t0aBV3gc1bam+ucy1EwlWp8gGw1VhWA+ZhF+FfTRYL4eA
lT5G5ahK6/X/uYa8MuDyWD4mSClZb5fSuzXRsw86IWPuKVg67yNyLpapeHok7ldV
dVcncrL9Oh/6vdDKWDS+7sI+2XX1yUY2DKqzb76Hele7AgMBAAGjgcQwgcEwCQYD
VR0TBAIwADATBgNVHSUEDDAKBggrBgEFBQcDAjAsBglghkgBhvhCAQ0EHxYdT3Bl
blNTTCBHZW5lcmF0ZWQgQ2VydGlmaWNhdGUwHQYDVR0OBBYEFJHUFdkl3JHVetu3
HdWQ6qS59H6WMB8GA1UdIwQYMBaAFKAJz5+wxqPYtGQvrLzglFXroRaQMDEGA1Ud
HwQqMCgwJqAkoCKGIGh0dHA6Ly8xOTIuMTY4LjIxLjg5L3Jvb3RjcmwucGVtMA0G
CSqGSIb3DQEBBQUAA4ICAQAoLWhnPbCv3WCzU9NCgHdgGmEKvg/425Vd40dguhlo
osISvgvdMVJY94ocoOmLxGctc59KyVJnMUNEKpUGTdxHONitwJs54KQoy9zGKNXD
XhyiI4cXRj0CodJnwbFXY1QhOTo/iDW+kKILgNpyZBUkA4Qnxf/NXCjuEaWUNzXz
Iwqt9yVcKZJWQVrcnmR1aeLQRLFx5uXmqwnO9+79HxeA1GBHdOl660Q8v5x+dUST
3ka8e4iL4tJNDifYb+TFE/c1ASB68eFjGEopSChptMrOn2XF4YDhat+yvG+wROoW
O9bJf3mG87rf0JEbAfy6SJHMnwPS66KBBrSsmigO7zcS2/PiUj5xEutXub/DTtb8
INE6Y2EVn6WeO4oiPcL/Wb5Mj6m7ZgXth3Sn9uKt31gqRgveryYYU1EFE9LLBDYV
1x+X4z/35mizWmKzGQ5F7Ydxwj4ijbRuiRIpbDdQqjPGe34fDZsWFFztJrvLFdAW
d3+1hJ7ey6UkSLb5HLbG3fhbms2DILWbhlF2C9BfAiDCpkmLDlgql1WO5wUXkf+F
DDffB5a24q3Z+ZJ1239CGE91zfcG5gNa6DllizV9fvVVVQyTM5G9IzENLaZMx4Am
9hfTMwjJxfpuyCQIA+swqVfo6g/MF7qBQajPqLCzjawcxof6eZSjx2szskqQzELH
Wg==
-----END CERTIFICATE-----
