Certificate:
    Data:
        Version: 3 (0x2)
        Serial Number: 9 (0x9)
        Signature Algorithm: sha1WithRSAEncryption
        Issuer: C=BA, ST=RS, O=Elektrotehnicki fakultet, OU=Kriptografija i racunarska zastita, CN=rootca/emailAddress=rootca@mail.com
        Validity
            Not Before: Apr 17 15:42:20 2021 GMT
            Not After : Apr 17 15:42:20 2022 GMT
        Subject: C=BA, ST=RS, O=Elektrotehnicki fakultet, OU=Kriptografija i racunarska zastita, CN=kuku/emailAddress=kuku
        Subject Public Key Info:
            Public Key Algorithm: rsaEncryption
                RSA Public-Key: (2048 bit)
                Modulus:
                    00:ba:6e:97:ce:d9:ef:58:4e:74:c5:71:9c:8e:dc:
                    18:13:01:e3:38:14:b9:99:95:81:20:3d:6c:0b:2e:
                    48:46:a5:f7:ac:70:9c:17:db:6d:09:76:6d:e5:d1:
                    6c:9f:1b:f1:d7:71:1f:5a:eb:15:fe:5b:1b:e9:00:
                    0c:3f:b9:bc:77:1d:bf:e6:d7:b9:03:ab:7c:a6:ff:
                    bb:31:ee:63:eb:70:fc:db:05:52:7f:a8:c5:a4:a5:
                    45:ab:01:32:56:65:17:6b:59:54:4c:56:3b:37:94:
                    a0:3c:cb:bc:3c:99:0c:f4:35:19:a8:1a:f7:b1:64:
                    96:cf:99:0c:77:8a:30:6b:cd:e0:5f:4f:ee:89:d8:
                    49:bc:41:79:e2:b4:08:ae:08:89:84:5f:5a:fe:a2:
                    d0:3d:2d:03:cc:0f:bb:33:97:a8:02:bc:cb:86:cc:
                    c7:42:41:fa:dd:88:64:8a:5e:c3:fc:6b:1a:50:cd:
                    b6:ad:e5:3c:c3:0f:24:95:03:ac:42:8b:5b:e3:90:
                    aa:92:e0:01:3c:23:47:7a:b7:45:67:f0:49:49:eb:
                    a4:79:0f:f3:a5:dc:41:48:84:45:6f:15:f3:03:37:
                    b4:4e:25:37:66:63:e8:f7:76:7e:9f:ef:93:34:2c:
                    ae:a3:75:36:a9:e3:a0:0a:03:91:2c:11:f4:c7:12:
                    78:3d
                Exponent: 65537 (0x10001)
        X509v3 extensions:
            X509v3 Basic Constraints: 
                CA:FALSE
            X509v3 Extended Key Usage: 
                TLS Web Client Authentication
            Netscape Comment: 
                OpenSSL Generated Certificate
            X509v3 Subject Key Identifier: 
                C6:6B:94:21:19:B5:88:79:83:64:F4:6F:00:CF:C8:3C:65:60:5C:E6
            X509v3 Authority Key Identifier: 
                keyid:8E:FD:F1:76:1B:75:4A:0F:C9:9F:CD:14:50:0F:F0:48:76:AF:65:B8

            X509v3 CRL Distribution Points: 

                Full Name:
                  URI:http://192.168.21.89/rootcrl.pem

    Signature Algorithm: sha1WithRSAEncryption
         73:8b:0c:a5:d0:b6:c0:d7:7f:b7:ce:6f:11:12:81:7c:e0:e9:
         e1:e8:82:97:75:3e:1e:df:0a:0d:12:1a:00:9e:2a:10:ae:97:
         0f:1e:d4:33:cb:1d:af:7e:aa:1a:d9:4a:37:94:5b:9b:9b:18:
         b1:e4:4e:e0:d0:b8:a8:35:95:eb:42:2a:40:be:77:cc:c8:0d:
         59:bb:70:73:dc:bf:12:36:ea:32:38:a3:77:43:c6:9a:47:d3:
         7a:13:f1:72:5f:96:71:5c:98:88:93:67:35:16:e2:18:7e:18:
         65:37:93:c3:d7:e9:83:6b:b9:cc:12:16:c4:8e:b7:35:7a:4e:
         58:7c:16:18:db:4d:59:c4:9a:56:0e:30:93:32:87:5e:4c:82:
         83:d9:94:fd:f4:cd:7c:74:0e:28:db:ab:82:69:50:97:60:31:
         32:f4:97:66:3b:87:99:b2:a7:02:ca:70:9c:88:98:6f:4f:2d:
         22:a6:f3:37:f5:4c:dc:27:93:e2:07:28:a2:88:36:57:37:10:
         e4:65:3b:18:a6:e7:08:60:c3:ca:2e:0c:85:27:b1:a3:39:38:
         ac:41:89:06:77:79:8f:95:c8:63:89:55:cc:0e:93:3a:c7:6e:
         bf:e4:1f:54:1c:6d:b2:6e:0d:44:db:fc:70:39:a9:22:fa:de:
         e9:d3:38:a0:88:a4:d8:37:09:43:c1:86:ec:34:c5:6f:cd:15:
         5c:2f:7a:c6:ce:2b:92:23:d4:6a:59:6b:1d:67:02:36:86:2d:
         ff:2a:40:6b:9e:46:15:0a:0d:4d:7e:eb:ca:21:d3:ff:46:80:
         50:4e:d8:a9:23:28:33:1b:ee:7f:bb:2b:e5:06:36:00:4a:9f:
         88:41:03:b5:35:cc:27:dc:b3:1c:f4:96:4f:2a:8a:c0:5b:79:
         8b:04:bc:ec:bc:b4:65:31:d9:2a:7e:04:97:c7:de:1a:5d:c4:
         16:57:dd:95:64:56:31:11:0c:31:1a:d2:28:7b:0f:c0:07:d3:
         08:51:fb:8e:10:7e:33:f6:a1:f4:44:60:86:cc:27:77:52:9e:
         a3:7a:00:8b:7c:ae:02:b4:21:2e:c4:02:dd:e8:3e:5b:0c:ed:
         c7:c8:dc:8a:06:3d:e4:95:85:53:08:1e:37:f2:0a:9f:7c:45:
         e2:1b:44:3d:12:36:0c:01:f3:65:47:c2:36:55:56:83:2a:cb:
         8a:e0:39:d4:c1:4d:e9:6a:6d:1d:11:8f:2a:e9:18:86:48:f7:
         38:f6:1c:f5:17:be:2d:31:1c:6c:51:b8:fe:c0:92:a8:d3:78:
         87:e2:c7:73:e7:d3:de:dd:71:7e:03:5d:38:45:03:7c:cc:1e:
         84:3b:4f:04:49:2b:16:1d
-----BEGIN CERTIFICATE-----
MIIFazCCA1OgAwIBAgIBCTANBgkqhkiG9w0BAQUFADCBmzELMAkGA1UEBhMCQkEx
CzAJBgNVBAgTAlJTMSEwHwYDVQQKExhFbGVrdHJvdGVobmlja2kgZmFrdWx0ZXQx
KzApBgNVBAsTIktyaXB0b2dyYWZpamEgaSByYWN1bmFyc2thIHphc3RpdGExDzAN
BgNVBAMTBnJvb3RjYTEeMBwGCSqGSIb3DQEJARYPcm9vdGNhQG1haWwuY29tMB4X
DTIxMDQxNzE1NDIyMFoXDTIyMDQxNzE1NDIyMFowgY4xCzAJBgNVBAYTAkJBMQsw
CQYDVQQIEwJSUzEhMB8GA1UEChMYRWxla3Ryb3RlaG5pY2tpIGZha3VsdGV0MSsw
KQYDVQQLEyJLcmlwdG9ncmFmaWphIGkgcmFjdW5hcnNrYSB6YXN0aXRhMQ0wCwYD
VQQDEwRrdWt1MRMwEQYJKoZIhvcNAQkBFgRrdWt1MIIBIjANBgkqhkiG9w0BAQEF
AAOCAQ8AMIIBCgKCAQEAum6XztnvWE50xXGcjtwYEwHjOBS5mZWBID1sCy5IRqX3
rHCcF9ttCXZt5dFsnxvx13EfWusV/lsb6QAMP7m8dx2/5te5A6t8pv+7Me5j63D8
2wVSf6jFpKVFqwEyVmUXa1lUTFY7N5SgPMu8PJkM9DUZqBr3sWSWz5kMd4owa83g
X0/uidhJvEF54rQIrgiJhF9a/qLQPS0DzA+7M5eoArzLhszHQkH63Yhkil7D/Gsa
UM22reU8ww8klQOsQotb45CqkuABPCNHerdFZ/BJSeukeQ/zpdxBSIRFbxXzAze0
TiU3ZmPo93Z+n++TNCyuo3U2qeOgCgORLBH0xxJ4PQIDAQABo4HEMIHBMAkGA1Ud
EwQCMAAwEwYDVR0lBAwwCgYIKwYBBQUHAwIwLAYJYIZIAYb4QgENBB8WHU9wZW5T
U0wgR2VuZXJhdGVkIENlcnRpZmljYXRlMB0GA1UdDgQWBBTGa5QhGbWIeYNk9G8A
z8g8ZWBc5jAfBgNVHSMEGDAWgBSO/fF2G3VKD8mfzRRQD/BIdq9luDAxBgNVHR8E
KjAoMCagJKAihiBodHRwOi8vMTkyLjE2OC4yMS44OS9yb290Y3JsLnBlbTANBgkq
hkiG9w0BAQUFAAOCAgEAc4sMpdC2wNd/t85vERKBfODp4eiCl3U+Ht8KDRIaAJ4q
EK6XDx7UM8sdr36qGtlKN5Rbm5sYseRO4NC4qDWV60IqQL53zMgNWbtwc9y/Ejbq
Mjijd0PGmkfTehPxcl+WcVyYiJNnNRbiGH4YZTeTw9fpg2u5zBIWxI63NXpOWHwW
GNtNWcSaVg4wkzKHXkyCg9mU/fTNfHQOKNurgmlQl2AxMvSXZjuHmbKnAspwnIiY
b08tIqbzN/VM3CeT4gcooog2VzcQ5GU7GKbnCGDDyi4MhSexozk4rEGJBnd5j5XI
Y4lVzA6TOsduv+QfVBxtsm4NRNv8cDmpIvre6dM4oIik2DcJQ8GG7DTFb80VXC96
xs4rkiPUallrHWcCNoYt/ypAa55GFQoNTX7ryiHT/0aAUE7YqSMoMxvuf7sr5QY2
AEqfiEEDtTXMJ9yzHPSWTyqKwFt5iwS87Ly0ZTHZKn4El8feGl3EFlfdlWRWMREM
MRrSKHsPwAfTCFH7jhB+M/ah9ERghswnd1Keo3oAi3yuArQhLsQC3eg+Wwztx8jc
igY95JWFUwgeN/IKn3xF4htEPRI2DAHzZUfCNlVWgyrLiuA51MFN6WptHRGPKukY
hkj3OPYc9Re+LTEcbFG4/sCSqNN4h+LHc+fT3t1xfgNdOEUDfMwehDtPBEkrFh0=
-----END CERTIFICATE-----
