Certificate:
    Data:
        Version: 3 (0x2)
        Serial Number: 4 (0x4)
        Signature Algorithm: sha1WithRSAEncryption
        Issuer: C=BA, ST=RS, O=Elektrotehnicki fakultet, OU=Kriptografija i racunarska zastita, CN=rootca/emailAddress=rootca@mail.com
        Validity
            Not Before: Apr 17 14:53:01 2021 GMT
            Not After : Apr 17 14:53:01 2022 GMT
        Subject: C=BA, ST=RS, O=Elektrotehnicki fakultet, OU=Kriptografija i racunarska zastita, CN=mimi/emailAddress=mimi
        Subject Public Key Info:
            Public Key Algorithm: rsaEncryption
                RSA Public-Key: (2048 bit)
                Modulus:
                    00:cd:84:b4:0e:dd:7b:02:59:b3:e9:f9:8a:d0:cd:
                    59:60:ad:9b:af:34:a0:25:8a:b9:83:cc:bf:47:fe:
                    b7:5d:8b:79:a2:aa:27:5e:df:f1:8c:54:de:1c:42:
                    65:a3:bb:5c:92:db:03:5b:c7:62:e9:17:32:72:ff:
                    8d:7f:70:77:a6:29:7f:e5:54:45:77:bb:32:19:cc:
                    c6:a6:2f:81:e1:ec:3e:2b:42:09:75:f6:c9:89:03:
                    0e:14:68:48:75:88:7e:21:c3:4a:15:57:68:de:da:
                    57:7c:53:71:30:72:98:f8:2a:8b:62:70:e1:81:ba:
                    0a:33:73:6f:e8:12:c9:e1:cc:61:93:6c:02:c4:47:
                    4d:3e:cd:c9:41:e6:c6:ce:e9:66:52:74:92:76:3a:
                    99:33:f8:d3:b6:ef:1e:dc:98:e9:17:51:8a:8c:88:
                    11:93:d0:12:ea:22:92:03:a3:ae:ec:29:25:ce:3e:
                    df:0e:09:13:17:7d:d1:fd:13:b9:f4:0a:85:3b:37:
                    c1:cf:3c:2d:79:50:4f:64:81:2e:15:d3:10:8e:dd:
                    20:02:e6:97:f6:5b:ff:e4:e4:5d:5c:82:4a:fb:ea:
                    3a:d0:26:27:10:84:37:e3:d5:99:73:97:4b:4e:e5:
                    58:92:8c:8a:b9:7a:c0:f7:d0:50:20:28:d5:7d:de:
                    1f:bd
                Exponent: 65537 (0x10001)
        X509v3 extensions:
            X509v3 Basic Constraints: 
                CA:FALSE
            X509v3 Extended Key Usage: 
                TLS Web Client Authentication
            Netscape Comment: 
                OpenSSL Generated Certificate
            X509v3 Subject Key Identifier: 
                FD:A6:2E:55:D3:8B:C8:3A:BD:43:7D:50:7E:AF:88:C4:21:86:FA:AB
            X509v3 Authority Key Identifier: 
                keyid:8E:FD:F1:76:1B:75:4A:0F:C9:9F:CD:14:50:0F:F0:48:76:AF:65:B8

            X509v3 CRL Distribution Points: 

                Full Name:
                  URI:http://192.168.21.89/rootcrl.pem

    Signature Algorithm: sha1WithRSAEncryption
         bc:4b:59:94:0e:79:71:b7:37:57:62:ee:f4:ea:62:bb:ae:71:
         21:0d:5e:31:56:5f:62:8b:b0:2f:63:2f:6b:d5:4d:ca:a7:e9:
         7e:d3:d7:52:e7:12:2b:36:fb:59:d0:35:67:b3:4d:0f:58:8b:
         31:b5:d3:ff:d6:06:63:57:e6:2d:2f:19:7c:49:82:be:35:19:
         74:1c:07:29:2f:18:46:8a:bc:3e:ff:06:c2:2c:c2:67:b9:69:
         be:65:75:10:c4:7b:38:e8:16:45:44:32:ce:98:15:09:cc:9a:
         dd:ad:4d:5f:09:52:66:83:a6:10:c6:84:9f:0b:a6:83:56:61:
         db:e8:3b:f0:d3:94:a5:22:ea:c5:b6:fb:f3:16:64:1f:f8:9f:
         d6:dc:6e:85:8c:54:08:4a:b7:b6:34:a1:25:0b:c9:95:03:dd:
         d4:6b:5b:25:35:8e:1d:00:77:02:fd:87:f0:35:f5:7f:4f:4d:
         54:0e:fa:1e:40:bf:69:a5:18:86:0c:ec:68:e9:29:7d:31:1b:
         1a:5a:a4:c0:04:24:87:ee:4c:b4:d4:e7:ca:5d:f3:ef:d9:c1:
         9c:2f:6c:4b:23:ed:89:34:f9:65:1c:fc:b1:11:a7:9f:03:db:
         a0:a5:67:fb:13:6a:2f:df:b7:f3:b2:56:dd:ec:97:1b:56:1b:
         d2:2b:cd:09:00:91:d3:75:eb:db:af:4e:da:2a:17:53:d8:de:
         48:16:f1:a5:98:fa:08:34:cb:9e:5c:b5:38:7c:0d:fc:55:51:
         3c:6a:55:96:a6:1f:cc:53:f4:62:3f:99:58:81:29:c2:f0:32:
         7b:40:6e:d7:67:a8:03:de:9a:55:93:ca:b0:57:91:6e:d1:38:
         59:e4:0f:ad:84:9f:86:df:bd:85:d2:3a:27:a6:95:d0:a3:1e:
         3c:0e:59:27:8c:68:96:0a:1c:04:ee:56:a7:5c:79:1d:5e:bc:
         28:e0:e3:c5:bf:5a:1f:ab:ae:cb:79:7c:b6:2b:c8:fa:41:f6:
         f1:75:b9:13:d4:cb:44:76:d0:02:40:26:2d:ad:a6:86:e2:88:
         8a:1d:ec:b7:29:70:6e:4f:e1:95:51:27:b3:be:73:ff:dc:b8:
         0c:d3:ff:8b:3f:d6:ac:04:2f:39:21:1c:ad:5f:37:39:34:44:
         0e:4d:c0:f2:ea:66:d0:21:1c:42:54:7c:96:93:80:58:43:bc:
         b1:74:79:17:e4:19:c5:fe:74:0a:6e:70:65:e1:ad:c0:5a:d9:
         ee:67:0f:a4:4c:2b:83:4e:91:7d:22:d1:53:28:e1:0e:9d:7c:
         07:bd:e7:d9:c3:f7:1e:f6:ed:ae:ec:0c:a8:36:20:0e:14:06:
         c6:fa:cb:5b:2a:43:c2:1d
-----BEGIN CERTIFICATE-----
MIIFazCCA1OgAwIBAgIBBDANBgkqhkiG9w0BAQUFADCBmzELMAkGA1UEBhMCQkEx
CzAJBgNVBAgTAlJTMSEwHwYDVQQKExhFbGVrdHJvdGVobmlja2kgZmFrdWx0ZXQx
KzApBgNVBAsTIktyaXB0b2dyYWZpamEgaSByYWN1bmFyc2thIHphc3RpdGExDzAN
BgNVBAMTBnJvb3RjYTEeMBwGCSqGSIb3DQEJARYPcm9vdGNhQG1haWwuY29tMB4X
DTIxMDQxNzE0NTMwMVoXDTIyMDQxNzE0NTMwMVowgY4xCzAJBgNVBAYTAkJBMQsw
CQYDVQQIEwJSUzEhMB8GA1UEChMYRWxla3Ryb3RlaG5pY2tpIGZha3VsdGV0MSsw
KQYDVQQLEyJLcmlwdG9ncmFmaWphIGkgcmFjdW5hcnNrYSB6YXN0aXRhMQ0wCwYD
VQQDEwRtaW1pMRMwEQYJKoZIhvcNAQkBFgRtaW1pMIIBIjANBgkqhkiG9w0BAQEF
AAOCAQ8AMIIBCgKCAQEAzYS0Dt17Almz6fmK0M1ZYK2brzSgJYq5g8y/R/63XYt5
oqonXt/xjFTeHEJlo7tcktsDW8di6Rcycv+Nf3B3pil/5VRFd7syGczGpi+B4ew+
K0IJdfbJiQMOFGhIdYh+IcNKFVdo3tpXfFNxMHKY+CqLYnDhgboKM3Nv6BLJ4cxh
k2wCxEdNPs3JQebGzulmUnSSdjqZM/jTtu8e3JjpF1GKjIgRk9AS6iKSA6Ou7Ckl
zj7fDgkTF33R/RO59AqFOzfBzzwteVBPZIEuFdMQjt0gAuaX9lv/5ORdXIJK++o6
0CYnEIQ349WZc5dLTuVYkoyKuXrA99BQICjVfd4fvQIDAQABo4HEMIHBMAkGA1Ud
EwQCMAAwEwYDVR0lBAwwCgYIKwYBBQUHAwIwLAYJYIZIAYb4QgENBB8WHU9wZW5T
U0wgR2VuZXJhdGVkIENlcnRpZmljYXRlMB0GA1UdDgQWBBT9pi5V04vIOr1DfVB+
r4jEIYb6qzAfBgNVHSMEGDAWgBSO/fF2G3VKD8mfzRRQD/BIdq9luDAxBgNVHR8E
KjAoMCagJKAihiBodHRwOi8vMTkyLjE2OC4yMS44OS9yb290Y3JsLnBlbTANBgkq
hkiG9w0BAQUFAAOCAgEAvEtZlA55cbc3V2Lu9Opiu65xIQ1eMVZfYouwL2Mva9VN
yqfpftPXUucSKzb7WdA1Z7NND1iLMbXT/9YGY1fmLS8ZfEmCvjUZdBwHKS8YRoq8
Pv8GwizCZ7lpvmV1EMR7OOgWRUQyzpgVCcya3a1NXwlSZoOmEMaEnwumg1Zh2+g7
8NOUpSLqxbb78xZkH/if1txuhYxUCEq3tjShJQvJlQPd1GtbJTWOHQB3Av2H8DX1
f09NVA76HkC/aaUYhgzsaOkpfTEbGlqkwAQkh+5MtNTnyl3z79nBnC9sSyPtiTT5
ZRz8sRGnnwPboKVn+xNqL9+387JW3eyXG1Yb0ivNCQCR03Xr269O2ioXU9jeSBbx
pZj6CDTLnly1OHwN/FVRPGpVlqYfzFP0Yj+ZWIEpwvAye0Bu12eoA96aVZPKsFeR
btE4WeQPrYSfht+9hdI6J6aV0KMePA5ZJ4xolgocBO5Wp1x5HV68KODjxb9aH6uu
y3l8tivI+kH28XW5E9TLRHbQAkAmLa2mhuKIih3stylwbk/hlVEns75z/9y4DNP/
iz/WrAQvOSEcrV83OTREDk3A8upm0CEcQlR8lpOAWEO8sXR5F+QZxf50Cm5wZeGt
wFrZ7mcPpEwrg06RfSLRUyjhDp18B73n2cP3HvbtruwMqDYgDhQGxvrLWypDwh0=
-----END CERTIFICATE-----
