Certificate:
    Data:
        Version: 3 (0x2)
        Serial Number: 5 (0x5)
        Signature Algorithm: sha1WithRSAEncryption
        Issuer: C=BA, ST=RS, O=Elektrotehnicki fakultet, OU=Kriptografija i racunarska zastita, CN=rootca/emailAddress=rootca@mail.com
        Validity
            Not Before: Apr 17 15:05:05 2021 GMT
            Not After : Apr 17 15:05:05 2022 GMT
        Subject: C=BA, ST=RS, O=Elektrotehnicki fakultet, OU=Kriptografija i racunarska zastita, CN=nina/emailAddress=nina
        Subject Public Key Info:
            Public Key Algorithm: rsaEncryption
                RSA Public-Key: (2048 bit)
                Modulus:
                    00:a0:d9:b3:fe:12:88:68:b5:48:ab:a8:71:b9:a9:
                    c4:be:fe:4c:0f:e8:0e:1d:dd:21:62:b7:76:bc:70:
                    b1:4e:fd:51:66:a6:c3:a4:a8:b2:bc:49:c7:0b:09:
                    2e:ac:9c:9f:f8:82:f4:6a:75:54:0d:fe:d8:b8:f6:
                    aa:38:e5:9f:5e:79:4a:ef:c7:c0:0b:e5:01:31:c1:
                    fa:cf:16:5a:b4:b5:ee:14:b8:2b:95:7b:64:f3:5e:
                    f1:7d:cd:6e:4d:b2:4c:79:53:e8:42:44:b7:c4:16:
                    a2:3c:ec:74:54:f8:09:b6:27:b1:6f:87:2e:07:64:
                    ae:5e:dc:12:92:f4:f0:bd:4f:a9:c9:b2:34:76:af:
                    b8:64:11:74:74:ff:22:57:d6:74:6f:66:f5:93:10:
                    88:8e:38:e9:cc:2b:32:7a:0d:91:9c:87:aa:0c:ab:
                    0e:5c:69:cd:b9:92:96:44:56:de:da:f2:8b:6a:41:
                    0f:a8:ae:76:ef:9d:7d:c4:8e:09:bb:0b:44:09:3f:
                    95:b4:ae:6c:be:b1:1b:96:bd:46:35:15:f6:a4:af:
                    9e:18:f5:8f:c2:3e:c6:e0:cd:db:10:c6:21:d8:3f:
                    67:02:7f:25:fd:0a:fa:10:34:da:79:a1:e3:f0:84:
                    43:27:ac:5d:51:3a:c8:a2:4d:b2:ec:9e:63:f2:b8:
                    45:e7
                Exponent: 65537 (0x10001)
        X509v3 extensions:
            X509v3 Basic Constraints: 
                CA:FALSE
            X509v3 Extended Key Usage: 
                TLS Web Client Authentication
            Netscape Comment: 
                OpenSSL Generated Certificate
            X509v3 Subject Key Identifier: 
                14:11:5D:56:B6:9D:0A:4E:17:85:45:A0:80:7F:1E:7F:26:18:F9:37
            X509v3 Authority Key Identifier: 
                keyid:8E:FD:F1:76:1B:75:4A:0F:C9:9F:CD:14:50:0F:F0:48:76:AF:65:B8

            X509v3 CRL Distribution Points: 

                Full Name:
                  URI:http://192.168.21.89/rootcrl.pem

    Signature Algorithm: sha1WithRSAEncryption
         5e:68:7f:a7:91:b5:7a:62:28:54:43:73:76:6c:4c:a7:d5:6e:
         5c:d9:59:56:26:88:7c:7c:f1:4f:a8:c6:c7:88:18:60:79:19:
         ea:b7:0d:d3:b5:ab:94:7f:69:ad:4d:9f:4c:5c:cb:d2:1b:f1:
         b7:93:34:48:28:b7:cb:b1:64:c4:90:e1:f8:b9:0a:1f:e2:d9:
         8e:bf:70:ab:e6:1f:aa:05:72:f4:75:66:9e:27:ec:28:88:9b:
         f3:81:52:a6:30:70:04:8f:dc:8a:3f:04:e9:76:52:11:d1:56:
         c0:96:98:7d:bb:45:8b:41:be:ae:d7:1b:f8:e5:40:6d:01:b3:
         29:bc:8b:87:e8:20:83:59:5e:39:f7:21:50:f5:91:b5:14:3f:
         cf:c0:d5:4d:75:c7:ef:8b:73:93:9b:33:4b:f6:f7:4f:d7:c5:
         32:4d:8b:1a:2b:1a:8f:5a:26:9a:6e:69:c1:ee:34:44:fb:a6:
         82:ce:25:2f:a1:f8:a3:84:e9:77:6b:09:d6:f6:26:ba:71:de:
         2b:bf:65:d3:03:af:f7:e8:67:a7:e8:c7:bf:71:5f:ee:56:05:
         de:1b:ec:49:bb:99:13:bb:db:44:08:6c:a9:68:72:b9:0a:28:
         49:90:c1:b3:ac:c7:3f:05:02:33:c5:8f:f1:aa:22:61:ee:5e:
         c2:da:36:25:07:15:54:ff:69:05:b6:c4:33:10:dd:77:11:93:
         3a:e8:8a:74:e9:f9:7d:8f:04:7d:fc:92:52:0f:c0:59:b2:b1:
         55:5a:9b:05:e3:c0:91:0d:fd:90:f8:5f:bf:eb:5b:f3:21:76:
         43:95:25:4a:b7:20:2a:49:0a:f9:68:ca:ce:0f:a6:d4:69:f4:
         29:69:1f:1b:cc:d3:86:cb:c5:5b:aa:a2:a7:11:e3:56:7e:4f:
         e1:c0:b5:f2:b6:8b:4f:15:69:d0:8a:64:bd:c3:54:40:b1:15:
         09:1f:99:b0:12:70:55:0f:92:67:9d:08:7e:ad:68:45:e3:7d:
         01:32:d0:94:d6:99:18:fc:39:a6:57:35:d4:4a:c1:d6:7a:41:
         1e:e8:32:8a:47:78:e1:e3:5d:98:cb:ee:de:a9:73:c6:68:e7:
         64:64:63:ac:35:23:5e:55:0e:b4:7f:2a:cf:37:3c:0a:d1:b4:
         6e:3a:4d:86:55:67:45:a0:6a:93:94:2a:42:d9:cc:43:41:4f:
         8a:96:32:ac:6e:8a:c0:58:e3:9d:ee:1c:85:da:ab:1d:c3:58:
         c1:db:4e:65:1e:3c:d8:55:57:00:58:64:af:df:45:70:2f:ea:
         ca:6c:fc:9b:bd:19:13:37:3a:c0:c5:91:9b:9c:9e:19:90:b3:
         00:f5:74:dc:82:a1:65:10
-----BEGIN CERTIFICATE-----
MIIFazCCA1OgAwIBAgIBBTANBgkqhkiG9w0BAQUFADCBmzELMAkGA1UEBhMCQkEx
CzAJBgNVBAgTAlJTMSEwHwYDVQQKExhFbGVrdHJvdGVobmlja2kgZmFrdWx0ZXQx
KzApBgNVBAsTIktyaXB0b2dyYWZpamEgaSByYWN1bmFyc2thIHphc3RpdGExDzAN
BgNVBAMTBnJvb3RjYTEeMBwGCSqGSIb3DQEJARYPcm9vdGNhQG1haWwuY29tMB4X
DTIxMDQxNzE1MDUwNVoXDTIyMDQxNzE1MDUwNVowgY4xCzAJBgNVBAYTAkJBMQsw
CQYDVQQIEwJSUzEhMB8GA1UEChMYRWxla3Ryb3RlaG5pY2tpIGZha3VsdGV0MSsw
KQYDVQQLEyJLcmlwdG9ncmFmaWphIGkgcmFjdW5hcnNrYSB6YXN0aXRhMQ0wCwYD
VQQDEwRuaW5hMRMwEQYJKoZIhvcNAQkBFgRuaW5hMIIBIjANBgkqhkiG9w0BAQEF
AAOCAQ8AMIIBCgKCAQEAoNmz/hKIaLVIq6hxuanEvv5MD+gOHd0hYrd2vHCxTv1R
ZqbDpKiyvEnHCwkurJyf+IL0anVUDf7YuPaqOOWfXnlK78fAC+UBMcH6zxZatLXu
FLgrlXtk817xfc1uTbJMeVPoQkS3xBaiPOx0VPgJtiexb4cuB2SuXtwSkvTwvU+p
ybI0dq+4ZBF0dP8iV9Z0b2b1kxCIjjjpzCsyeg2RnIeqDKsOXGnNuZKWRFbe2vKL
akEPqK527519xI4JuwtECT+VtK5svrEblr1GNRX2pK+eGPWPwj7G4M3bEMYh2D9n
An8l/Qr6EDTaeaHj8IRDJ6xdUTrIok2y7J5j8rhF5wIDAQABo4HEMIHBMAkGA1Ud
EwQCMAAwEwYDVR0lBAwwCgYIKwYBBQUHAwIwLAYJYIZIAYb4QgENBB8WHU9wZW5T
U0wgR2VuZXJhdGVkIENlcnRpZmljYXRlMB0GA1UdDgQWBBQUEV1Wtp0KTheFRaCA
fx5/Jhj5NzAfBgNVHSMEGDAWgBSO/fF2G3VKD8mfzRRQD/BIdq9luDAxBgNVHR8E
KjAoMCagJKAihiBodHRwOi8vMTkyLjE2OC4yMS44OS9yb290Y3JsLnBlbTANBgkq
hkiG9w0BAQUFAAOCAgEAXmh/p5G1emIoVENzdmxMp9VuXNlZViaIfHzxT6jGx4gY
YHkZ6rcN07WrlH9prU2fTFzL0hvxt5M0SCi3y7FkxJDh+LkKH+LZjr9wq+YfqgVy
9HVmnifsKIib84FSpjBwBI/cij8E6XZSEdFWwJaYfbtFi0G+rtcb+OVAbQGzKbyL
h+ggg1leOfchUPWRtRQ/z8DVTXXH74tzk5szS/b3T9fFMk2LGisaj1ommm5pwe40
RPumgs4lL6H4o4Tpd2sJ1vYmunHeK79l0wOv9+hnp+jHv3Ff7lYF3hvsSbuZE7vb
RAhsqWhyuQooSZDBs6zHPwUCM8WP8aoiYe5ewto2JQcVVP9pBbbEMxDddxGTOuiK
dOn5fY8EffySUg/AWbKxVVqbBePAkQ39kPhfv+tb8yF2Q5UlSrcgKkkK+WjKzg+m
1Gn0KWkfG8zThsvFW6qipxHjVn5P4cC18raLTxVp0IpkvcNUQLEVCR+ZsBJwVQ+S
Z50Ifq1oReN9ATLQlNaZGPw5plc11ErB1npBHugyikd44eNdmMvu3qlzxmjnZGRj
rDUjXlUOtH8qzzc8CtG0bjpNhlVnRaBqk5QqQtnMQ0FPipYyrG6KwFjjne4chdqr
HcNYwdtOZR482FVXAFhkr99FcC/qymz8m70ZEzc6wMWRm5yeGZCzAPV03IKhZRA=
-----END CERTIFICATE-----
