Certificate:
    Data:
        Version: 3 (0x2)
        Serial Number: 6 (0x6)
        Signature Algorithm: sha1WithRSAEncryption
        Issuer: C=BA, ST=RS, O=Elektrotehnicki fakultet, OU=Kriptografija i racunarska zastita, CN=rootca/emailAddress=rootca@mail.com
        Validity
            Not Before: Apr 17 15:06:50 2021 GMT
            Not After : Apr 17 15:06:50 2022 GMT
        Subject: C=BA, ST=RS, O=Elektrotehnicki fakultet, OU=Kriptografija i racunarska zastita, CN=pipi/emailAddress=pipi
        Subject Public Key Info:
            Public Key Algorithm: rsaEncryption
                RSA Public-Key: (2048 bit)
                Modulus:
                    00:a7:4d:21:f0:9a:c9:db:a3:be:f4:f3:20:a6:82:
                    0b:04:fb:69:c9:26:46:26:5d:d6:78:ac:e8:88:6c:
                    12:b3:20:d1:6c:4c:5c:10:50:9d:76:f6:b0:36:99:
                    7e:6d:7a:fa:63:b3:d1:d2:66:ea:f5:1c:3c:9b:cf:
                    48:25:b0:2c:dd:9a:fa:68:e5:7f:7d:73:a4:e3:a5:
                    25:9e:46:86:fb:4d:f9:80:b6:98:a1:ab:82:e6:13:
                    bc:ad:ec:f6:4a:6c:17:ca:26:4c:7e:5a:d6:04:b8:
                    49:31:0e:6d:8a:1c:cc:a4:08:76:ff:ed:40:a7:77:
                    ff:39:33:8d:19:56:2a:cb:2e:df:98:0b:08:1c:81:
                    ed:00:7a:a0:e0:a3:69:28:00:9a:9a:41:e3:09:bc:
                    5c:ae:b7:16:13:5c:0e:37:be:8e:0b:a8:ca:1a:ef:
                    5e:52:c6:7d:9a:ea:8b:5e:2c:39:54:c1:af:6e:47:
                    59:d4:a1:3b:13:f7:f9:24:33:85:54:05:ce:ef:09:
                    33:1a:22:63:ae:1a:3c:45:2e:bf:7a:cf:be:3e:b6:
                    5f:57:60:c0:49:7d:d2:f7:bf:cd:15:47:b4:5a:b0:
                    5a:9d:7d:98:ce:31:e8:6a:9f:da:43:dd:7f:6f:2d:
                    a6:bd:f1:76:70:14:95:a6:0a:50:d3:16:15:a0:d5:
                    85:a1
                Exponent: 65537 (0x10001)
        X509v3 extensions:
            X509v3 Basic Constraints: 
                CA:FALSE
            X509v3 Extended Key Usage: 
                TLS Web Client Authentication
            Netscape Comment: 
                OpenSSL Generated Certificate
            X509v3 Subject Key Identifier: 
                E4:B3:C7:78:5E:67:BA:BB:78:2D:14:B4:BA:FC:21:36:A9:AC:51:AA
            X509v3 Authority Key Identifier: 
                keyid:8E:FD:F1:76:1B:75:4A:0F:C9:9F:CD:14:50:0F:F0:48:76:AF:65:B8

            X509v3 CRL Distribution Points: 

                Full Name:
                  URI:http://192.168.21.89/rootcrl.pem

    Signature Algorithm: sha1WithRSAEncryption
         20:3a:b8:36:6e:33:ca:f6:a1:51:cc:cd:c5:57:ad:12:31:d4:
         ef:52:00:81:93:5b:75:47:66:68:b2:9c:ed:84:9a:6a:64:d4:
         fe:1d:97:87:42:bb:96:4b:09:cc:8d:e2:2e:32:40:94:cf:e5:
         e1:66:9e:e7:c4:47:2c:2b:54:db:de:da:82:72:2d:03:37:f9:
         26:0d:a9:98:dc:22:43:79:b4:ed:7d:39:b2:1d:1a:ef:c5:2f:
         8b:55:51:67:ca:4d:07:a6:be:be:4d:c9:f9:b2:a2:fc:c0:4b:
         c1:bf:22:4f:ea:62:d4:18:d5:04:ac:8a:cd:b9:42:8a:14:5c:
         e8:29:2f:82:3e:fe:08:30:d8:c6:46:d9:d5:46:b7:29:c1:ca:
         f0:76:05:46:24:66:2e:13:34:2b:1d:c1:eb:e5:f9:ba:65:61:
         2b:2a:b1:c6:65:04:86:55:3c:cb:92:2f:27:d9:fd:51:67:52:
         b4:28:f1:0b:e7:3b:17:c6:64:34:80:fb:9d:60:89:1f:b6:71:
         b0:80:3e:76:cb:4b:04:fe:27:7c:5e:07:5d:e2:45:08:51:de:
         e5:71:c0:7b:95:a3:47:8c:6a:a6:cf:cc:1b:41:9c:d1:80:8b:
         61:dd:b7:74:0e:ed:c2:e8:0a:2c:92:42:15:b4:e8:76:b5:33:
         a7:4f:fe:75:d6:51:ce:35:f0:fa:da:4e:a2:ed:c8:4e:19:7e:
         ca:e4:7b:2b:cf:27:91:c9:22:e6:27:39:31:af:d0:ff:47:96:
         31:52:90:1a:f9:96:7b:5d:39:f4:87:fc:5a:91:83:3b:4d:40:
         49:f3:24:50:5f:ea:08:52:d2:e7:87:57:4b:21:8c:a6:e3:62:
         21:7f:09:56:7f:32:14:28:79:68:09:33:f7:5d:4a:8f:e6:74:
         6b:ab:25:dd:8a:7b:33:a3:8a:4c:7d:93:e1:5a:3e:ce:30:6f:
         00:4d:0d:13:4d:d2:0d:f7:7f:be:e6:ca:4b:b3:3d:8c:ef:df:
         06:41:59:c2:34:8f:15:10:ff:e1:44:87:c3:ce:32:62:62:4b:
         43:71:93:ec:d2:5a:b4:d8:b3:f4:57:a7:5d:0b:ad:c0:72:1d:
         91:17:75:66:80:e3:5f:c2:c3:bb:a6:a5:98:ba:26:47:1b:87:
         93:0f:c2:22:ad:24:00:e2:f6:ca:3d:3f:35:53:2c:87:e7:44:
         a7:20:10:5c:4b:9a:70:a4:43:42:5b:37:3e:30:45:db:a1:b5:
         d0:ff:e4:86:eb:bf:54:67:12:71:1b:d0:ae:33:48:a6:84:65:
         4d:9b:b6:cb:71:1d:54:2a:eb:35:fb:63:75:6c:6d:58:b7:c1:
         b7:44:46:de:52:62:76:a1
-----BEGIN CERTIFICATE-----
MIIFazCCA1OgAwIBAgIBBjANBgkqhkiG9w0BAQUFADCBmzELMAkGA1UEBhMCQkEx
CzAJBgNVBAgTAlJTMSEwHwYDVQQKExhFbGVrdHJvdGVobmlja2kgZmFrdWx0ZXQx
KzApBgNVBAsTIktyaXB0b2dyYWZpamEgaSByYWN1bmFyc2thIHphc3RpdGExDzAN
BgNVBAMTBnJvb3RjYTEeMBwGCSqGSIb3DQEJARYPcm9vdGNhQG1haWwuY29tMB4X
DTIxMDQxNzE1MDY1MFoXDTIyMDQxNzE1MDY1MFowgY4xCzAJBgNVBAYTAkJBMQsw
CQYDVQQIEwJSUzEhMB8GA1UEChMYRWxla3Ryb3RlaG5pY2tpIGZha3VsdGV0MSsw
KQYDVQQLEyJLcmlwdG9ncmFmaWphIGkgcmFjdW5hcnNrYSB6YXN0aXRhMQ0wCwYD
VQQDEwRwaXBpMRMwEQYJKoZIhvcNAQkBFgRwaXBpMIIBIjANBgkqhkiG9w0BAQEF
AAOCAQ8AMIIBCgKCAQEAp00h8JrJ26O+9PMgpoILBPtpySZGJl3WeKzoiGwSsyDR
bExcEFCddvawNpl+bXr6Y7PR0mbq9Rw8m89IJbAs3Zr6aOV/fXOk46UlnkaG+035
gLaYoauC5hO8rez2SmwXyiZMflrWBLhJMQ5tihzMpAh2/+1Ap3f/OTONGVYqyy7f
mAsIHIHtAHqg4KNpKACamkHjCbxcrrcWE1wON76OC6jKGu9eUsZ9muqLXiw5VMGv
bkdZ1KE7E/f5JDOFVAXO7wkzGiJjrho8RS6/es++PrZfV2DASX3S97/NFUe0WrBa
nX2YzjHoap/aQ91/by2mvfF2cBSVpgpQ0xYVoNWFoQIDAQABo4HEMIHBMAkGA1Ud
EwQCMAAwEwYDVR0lBAwwCgYIKwYBBQUHAwIwLAYJYIZIAYb4QgENBB8WHU9wZW5T
U0wgR2VuZXJhdGVkIENlcnRpZmljYXRlMB0GA1UdDgQWBBTks8d4Xme6u3gtFLS6
/CE2qaxRqjAfBgNVHSMEGDAWgBSO/fF2G3VKD8mfzRRQD/BIdq9luDAxBgNVHR8E
KjAoMCagJKAihiBodHRwOi8vMTkyLjE2OC4yMS44OS9yb290Y3JsLnBlbTANBgkq
hkiG9w0BAQUFAAOCAgEAIDq4Nm4zyvahUczNxVetEjHU71IAgZNbdUdmaLKc7YSa
amTU/h2Xh0K7lksJzI3iLjJAlM/l4Wae58RHLCtU297agnItAzf5Jg2pmNwiQ3m0
7X05sh0a78Uvi1VRZ8pNB6a+vk3J+bKi/MBLwb8iT+pi1BjVBKyKzblCihRc6Ckv
gj7+CDDYxkbZ1Ua3KcHK8HYFRiRmLhM0Kx3B6+X5umVhKyqxxmUEhlU8y5IvJ9n9
UWdStCjxC+c7F8ZkNID7nWCJH7ZxsIA+dstLBP4nfF4HXeJFCFHe5XHAe5WjR4xq
ps/MG0Gc0YCLYd23dA7twugKLJJCFbTodrUzp0/+ddZRzjXw+tpOou3IThl+yuR7
K88nkcki5ic5Ma/Q/0eWMVKQGvmWe1059If8WpGDO01ASfMkUF/qCFLS54dXSyGM
puNiIX8JVn8yFCh5aAkz911Kj+Z0a6sl3Yp7M6OKTH2T4Vo+zjBvAE0NE03SDfd/
vubKS7M9jO/fBkFZwjSPFRD/4USHw84yYmJLQ3GT7NJatNiz9FenXQutwHIdkRd1
ZoDjX8LDu6almLomRxuHkw/CIq0kAOL2yj0/NVMsh+dEpyAQXEuacKRDQls3PjBF
26G10P/khuu/VGcScRvQrjNIpoRlTZu2y3EdVCrrNftjdWxtWLfBt0RG3lJidqE=
-----END CERTIFICATE-----
