Certificate:
    Data:
        Version: 3 (0x2)
        Serial Number: 7 (0x7)
        Signature Algorithm: sha1WithRSAEncryption
        Issuer: C=BA, ST=RS, O=Elektrotehnicki fakultet, OU=Kriptografija i racunarska zastita, CN=rootca/emailAddress=rootca@mail.com
        Validity
            Not Before: Apr 17 15:07:57 2021 GMT
            Not After : Apr 17 15:07:57 2022 GMT
        Subject: C=BA, ST=RS, O=Elektrotehnicki fakultet, OU=Kriptografija i racunarska zastita, CN=popo/emailAddress=popo
        Subject Public Key Info:
            Public Key Algorithm: rsaEncryption
                RSA Public-Key: (2048 bit)
                Modulus:
                    00:d4:7b:00:3c:b3:88:f0:b4:08:8b:20:e5:19:78:
                    86:e3:a5:8c:8d:04:f6:d7:ab:6d:70:1a:cd:2b:dc:
                    95:0f:b3:cd:25:a0:a5:61:da:ba:05:40:d1:8e:d4:
                    38:b9:27:02:83:ba:11:bf:d7:d5:ad:fe:7a:54:f1:
                    91:d6:db:dd:e9:79:65:0e:71:d6:4b:ba:33:a9:a8:
                    38:cf:1a:5b:ab:59:86:c9:65:60:53:d9:cb:34:8a:
                    5b:8f:54:9d:52:dc:d2:82:61:b9:25:4f:e4:b5:27:
                    12:af:ec:13:39:f7:81:88:29:67:1a:96:f2:50:76:
                    1c:dd:89:79:9e:ee:ca:c0:50:85:85:ea:6e:6d:48:
                    6c:f3:7e:26:a4:db:a0:52:c7:20:e1:ee:26:30:2f:
                    2f:68:88:92:2e:17:bc:9c:6d:9d:c2:74:69:4a:24:
                    2b:20:8f:3e:b3:82:47:ce:7d:17:37:10:4c:69:f5:
                    46:be:50:32:f6:f0:90:7d:4c:e4:b2:22:7a:9c:54:
                    14:cc:a4:78:51:66:fc:a4:65:a5:cd:51:ef:7f:3e:
                    cc:da:c0:0b:14:eb:33:75:19:f4:e4:1d:98:19:bd:
                    b6:1b:b7:24:29:f8:ac:98:b9:92:c9:da:27:62:44:
                    16:13:88:c0:e6:6c:3e:00:aa:f4:d6:fd:69:e4:62:
                    d1:fb
                Exponent: 65537 (0x10001)
        X509v3 extensions:
            X509v3 Basic Constraints: 
                CA:FALSE
            X509v3 Extended Key Usage: 
                TLS Web Client Authentication
            Netscape Comment: 
                OpenSSL Generated Certificate
            X509v3 Subject Key Identifier: 
                F9:C7:E4:61:E2:28:C4:86:90:6F:62:A9:23:DE:B0:FC:46:43:B3:B6
            X509v3 Authority Key Identifier: 
                keyid:8E:FD:F1:76:1B:75:4A:0F:C9:9F:CD:14:50:0F:F0:48:76:AF:65:B8

            X509v3 CRL Distribution Points: 

                Full Name:
                  URI:http://192.168.21.89/rootcrl.pem

    Signature Algorithm: sha1WithRSAEncryption
         0c:e2:cc:99:ed:14:59:5a:88:f6:b4:ed:fc:74:a1:69:4e:51:
         46:d1:ff:b2:e4:fd:f8:69:ed:03:5a:a0:59:1a:cd:b8:14:8c:
         d9:2b:ff:1d:2a:52:62:be:0a:bb:81:c4:75:75:d4:fb:69:6a:
         dc:e2:33:97:9d:00:f2:9f:18:31:3d:ea:fa:79:b5:a1:2f:56:
         b4:87:f8:c1:de:57:81:38:3a:9a:3f:63:ce:cb:a5:fd:cd:b0:
         59:28:46:be:da:85:67:4e:b6:7d:36:4c:f9:65:e5:df:47:19:
         6f:14:b6:f9:fa:68:f5:0d:f9:6c:8b:bf:2b:e9:80:da:1c:f9:
         06:dd:64:55:ed:c3:9e:d7:5e:b2:e4:b1:43:84:59:ae:56:23:
         24:5a:4b:f1:9b:7d:0c:99:10:07:32:fc:51:5c:4b:e5:4f:e7:
         9a:7c:4a:f1:d6:eb:c5:0b:8d:33:eb:7b:4d:00:04:eb:03:95:
         29:92:44:e6:b3:38:4f:9c:da:ad:32:2d:ba:73:bf:d9:be:2d:
         76:3a:e4:ca:46:79:f4:08:21:5e:06:2d:e6:2a:ee:84:75:93:
         d1:c9:ff:4d:6a:39:f4:59:e0:eb:d0:18:aa:a5:ee:b5:b3:d3:
         9b:67:6b:50:b9:e9:7f:b7:37:75:52:f4:4a:fe:ba:e4:15:c1:
         08:7e:d4:49:5f:86:0d:44:ef:ae:69:ee:3a:a1:f0:31:a9:cd:
         bc:d4:e9:8c:99:3a:5e:d9:a9:a8:8f:c2:74:01:79:99:ba:d4:
         f8:c2:8b:85:72:9b:07:52:d6:63:1a:74:70:b1:20:f5:aa:54:
         b8:61:d4:d0:dc:9d:95:1c:b5:b4:42:b4:62:ac:9d:e2:56:10:
         30:2d:08:08:a7:9d:61:1f:8f:c6:a6:ce:5f:6b:d7:92:2c:97:
         94:5c:93:1b:54:97:7a:6e:52:67:96:14:b1:b4:f1:c4:c6:39:
         88:e2:99:8b:ae:d0:0c:c5:11:29:a1:2b:e0:dc:74:34:bc:64:
         c1:7d:62:50:90:17:80:11:70:d3:ee:83:31:e7:e8:f5:c7:cc:
         4a:69:9f:4d:7d:ff:92:de:be:6d:d2:1a:22:8f:ca:b4:5c:c2:
         83:0f:36:80:8b:fa:63:cb:d4:ea:bc:27:91:eb:d4:3b:b4:9f:
         8e:8f:99:0c:cc:08:33:69:32:bc:cb:e8:9f:c5:54:38:48:8d:
         d5:1f:6d:62:36:58:a1:72:79:03:86:e5:f4:f8:8b:f0:5e:10:
         78:76:21:31:d1:c2:ff:ff:11:c0:36:84:e4:fa:09:f7:52:2c:
         ab:81:03:5f:7f:27:cf:36:e8:c3:68:74:89:9f:89:f8:2c:6d:
         8e:c4:16:23:58:61:a5:88
-----BEGIN CERTIFICATE-----
MIIFazCCA1OgAwIBAgIBBzANBgkqhkiG9w0BAQUFADCBmzELMAkGA1UEBhMCQkEx
CzAJBgNVBAgTAlJTMSEwHwYDVQQKExhFbGVrdHJvdGVobmlja2kgZmFrdWx0ZXQx
KzApBgNVBAsTIktyaXB0b2dyYWZpamEgaSByYWN1bmFyc2thIHphc3RpdGExDzAN
BgNVBAMTBnJvb3RjYTEeMBwGCSqGSIb3DQEJARYPcm9vdGNhQG1haWwuY29tMB4X
DTIxMDQxNzE1MDc1N1oXDTIyMDQxNzE1MDc1N1owgY4xCzAJBgNVBAYTAkJBMQsw
CQYDVQQIEwJSUzEhMB8GA1UEChMYRWxla3Ryb3RlaG5pY2tpIGZha3VsdGV0MSsw
KQYDVQQLEyJLcmlwdG9ncmFmaWphIGkgcmFjdW5hcnNrYSB6YXN0aXRhMQ0wCwYD
VQQDEwRwb3BvMRMwEQYJKoZIhvcNAQkBFgRwb3BvMIIBIjANBgkqhkiG9w0BAQEF
AAOCAQ8AMIIBCgKCAQEA1HsAPLOI8LQIiyDlGXiG46WMjQT216ttcBrNK9yVD7PN
JaClYdq6BUDRjtQ4uScCg7oRv9fVrf56VPGR1tvd6XllDnHWS7ozqag4zxpbq1mG
yWVgU9nLNIpbj1SdUtzSgmG5JU/ktScSr+wTOfeBiClnGpbyUHYc3Yl5nu7KwFCF
hepubUhs834mpNugUscg4e4mMC8vaIiSLhe8nG2dwnRpSiQrII8+s4JHzn0XNxBM
afVGvlAy9vCQfUzksiJ6nFQUzKR4UWb8pGWlzVHvfz7M2sALFOszdRn05B2YGb22
G7ckKfismLmSydonYkQWE4jA5mw+AKr01v1p5GLR+wIDAQABo4HEMIHBMAkGA1Ud
EwQCMAAwEwYDVR0lBAwwCgYIKwYBBQUHAwIwLAYJYIZIAYb4QgENBB8WHU9wZW5T
U0wgR2VuZXJhdGVkIENlcnRpZmljYXRlMB0GA1UdDgQWBBT5x+Rh4ijEhpBvYqkj
3rD8RkOztjAfBgNVHSMEGDAWgBSO/fF2G3VKD8mfzRRQD/BIdq9luDAxBgNVHR8E
KjAoMCagJKAihiBodHRwOi8vMTkyLjE2OC4yMS44OS9yb290Y3JsLnBlbTANBgkq
hkiG9w0BAQUFAAOCAgEADOLMme0UWVqI9rTt/HShaU5RRtH/suT9+GntA1qgWRrN
uBSM2Sv/HSpSYr4Ku4HEdXXU+2lq3OIzl50A8p8YMT3q+nm1oS9WtIf4wd5XgTg6
mj9jzsul/c2wWShGvtqFZ062fTZM+WXl30cZbxS2+fpo9Q35bIu/K+mA2hz5Bt1k
Ve3DntdesuSxQ4RZrlYjJFpL8Zt9DJkQBzL8UVxL5U/nmnxK8dbrxQuNM+t7TQAE
6wOVKZJE5rM4T5zarTItunO/2b4tdjrkykZ59AghXgYt5iruhHWT0cn/TWo59Fng
69AYqqXutbPTm2drULnpf7c3dVL0Sv665BXBCH7USV+GDUTvrmnuOqHwManNvNTp
jJk6XtmpqI/CdAF5mbrU+MKLhXKbB1LWYxp0cLEg9apUuGHU0NydlRy1tEK0Yqyd
4lYQMC0ICKedYR+PxqbOX2vXkiyXlFyTG1SXem5SZ5YUsbTxxMY5iOKZi67QDMUR
KaEr4Nx0NLxkwX1iUJAXgBFw0+6DMefo9cfMSmmfTX3/kt6+bdIaIo/KtFzCgw82
gIv6Y8vU6rwnkevUO7Sfjo+ZDMwIM2kyvMvon8VUOEiN1R9tYjZYoXJ5A4bl9PiL
8F4QeHYhMdHC//8RwDaE5PoJ91Isq4EDX38nzzbow2h0iZ+J+CxtjsQWI1hhpYg=
-----END CERTIFICATE-----
