Certificate:
    Data:
        Version: 3 (0x2)
        Serial Number: 1 (0x1)
        Signature Algorithm: sha1WithRSAEncryption
        Issuer: C=BA, ST=RS, O=Elektrotehnicki fakultet, OU=Kriptografija i racunarska zastita, CN=rootca/emailAddress=rootca@mail.com
        Validity
            Not Before: Apr 18 14:37:28 2021 GMT
            Not After : Apr 18 14:37:28 2022 GMT
        Subject: C=BA, ST=RS, O=Elektrotehnicki fakultet, OU=Kriptografija i racunarska zastita, CN=rootca/emailAddress=rootca@mail.com
        Subject Public Key Info:
            Public Key Algorithm: rsaEncryption
                RSA Public-Key: (4096 bit)
                Modulus:
                    00:f6:df:c6:13:c0:5c:3a:ad:36:ca:50:1e:d4:6e:
                    e0:f5:6c:40:b5:51:a5:41:6a:3d:59:c7:1a:c4:0a:
                    01:c4:97:3b:15:1a:51:02:33:04:fd:87:23:70:84:
                    a3:80:be:e3:99:1b:5c:e5:c7:05:51:42:9e:87:fa:
                    62:01:73:67:02:53:05:c5:a6:2a:b1:1e:75:75:af:
                    9f:f5:4b:a4:71:01:80:c8:49:9f:38:7a:b8:80:e5:
                    aa:bf:34:b2:01:62:81:2d:10:99:7f:4a:b5:77:6b:
                    a5:45:ca:b2:af:79:2a:39:4e:7e:04:0a:e2:fc:56:
                    07:04:f3:cf:99:db:e2:1c:a6:70:36:9b:0d:a2:14:
                    dc:9a:a4:db:56:e3:51:a1:98:b9:fe:8d:e0:3e:a1:
                    97:b4:39:5f:9f:0a:01:85:dd:02:80:c8:f2:cd:f8:
                    51:8d:0f:20:eb:26:95:9d:1e:b0:42:c3:e5:9f:82:
                    af:19:27:d5:04:9e:d9:d7:a0:9c:22:d0:a4:0f:43:
                    44:9c:38:f6:d6:82:8e:ab:57:ea:1d:72:d7:b0:8f:
                    ff:5a:45:e5:78:ee:60:5c:92:c3:6e:b8:14:bb:f9:
                    14:44:41:22:5c:f9:76:72:04:46:5d:f6:c9:3b:f9:
                    8d:49:e8:9b:0f:e3:7a:06:bd:7d:dd:fa:59:be:5c:
                    72:ea:5a:2d:7b:f8:38:1c:a6:ae:95:59:d6:09:ba:
                    0d:0c:ca:7c:a5:cf:cc:b5:64:97:dc:36:dd:e9:ee:
                    41:5d:6f:b4:3c:57:71:dd:5c:a9:6c:d7:df:5d:bf:
                    11:51:52:2b:fd:a7:13:67:69:b2:bf:a8:71:f8:3e:
                    5b:ee:79:e3:f3:6e:ae:20:6d:29:a5:4f:e6:7b:fb:
                    2f:e8:31:37:00:dd:f8:4e:d3:9a:66:ca:ee:36:e8:
                    b6:d6:05:2f:74:23:40:60:0e:44:cf:85:b9:af:04:
                    09:6f:fb:4a:9c:1a:ba:eb:a4:ce:dd:92:f0:d6:f2:
                    2b:49:8b:77:af:18:a6:32:68:1c:70:68:5c:58:58:
                    25:9d:2f:97:a8:ba:18:48:4f:7e:3e:7c:11:c1:ed:
                    0f:ea:4f:73:3e:17:3d:22:70:3c:ee:79:8f:cb:e9:
                    06:1a:5b:c4:1e:3f:93:e8:2e:39:88:22:85:56:51:
                    30:40:07:ee:1a:22:6a:56:28:42:8a:26:38:be:66:
                    2f:92:bd:3f:32:15:5e:27:74:71:a6:4f:02:31:b2:
                    82:fa:b9:d6:00:13:1e:77:a5:8d:8c:44:9f:d9:b4:
                    c0:cd:81:54:cf:52:ba:34:8c:34:28:6f:22:27:0a:
                    10:e9:5d:cc:4e:c9:7d:83:4f:96:36:33:4c:1a:2d:
                    5f:18:f1
                Exponent: 65537 (0x10001)
        X509v3 extensions:
            X509v3 Basic Constraints: 
                CA:FALSE
            X509v3 Extended Key Usage: 
                TLS Web Client Authentication
            Netscape Comment: 
                OpenSSL Generated Certificate
            X509v3 Subject Key Identifier: 
                61:25:6E:37:7F:6A:0F:B7:CE:9B:26:90:87:03:55:11:76:88:06:8E
            X509v3 Authority Key Identifier: 
                keyid:61:25:6E:37:7F:6A:0F:B7:CE:9B:26:90:87:03:55:11:76:88:06:8E

            X509v3 CRL Distribution Points: 

                Full Name:
                  URI:http://192.168.21.89/rootcrl.pem

    Signature Algorithm: sha1WithRSAEncryption
         c8:3b:6f:3e:3f:0d:d9:a8:71:74:01:78:cb:27:24:b6:92:f4:
         a0:c1:c0:20:51:a9:67:8c:22:7d:63:53:9a:2b:68:f2:2e:9a:
         73:90:67:8f:69:9f:ed:4f:a9:e5:99:50:26:eb:dd:e4:6e:ba:
         7c:a7:49:26:01:98:c4:a9:81:f3:e2:1e:0b:c7:90:75:2a:99:
         c3:dc:cd:7a:b6:ad:fb:a7:70:52:fe:ea:dc:bd:68:5d:2d:b1:
         89:31:fb:f4:f7:80:44:9c:81:97:fa:f3:4d:14:49:e9:d7:58:
         2b:f0:a5:3e:fd:34:64:08:7a:c2:88:15:d1:23:54:97:28:2a:
         51:a4:20:a5:b1:6d:dd:8a:10:70:b3:7d:1b:20:c9:28:4c:bb:
         31:57:6f:bb:17:34:c5:09:66:2e:99:06:46:39:89:2b:2d:30:
         31:b7:46:bb:7c:32:29:ab:5f:e2:b4:2e:e6:9b:cd:20:17:f8:
         e8:ee:26:6c:a4:ca:75:ba:29:9f:c0:f9:e0:f2:e7:42:61:fd:
         a9:c0:89:56:58:05:37:b0:75:8b:bd:cf:bf:a3:a9:18:c3:15:
         54:79:40:9d:0c:e3:09:65:82:12:92:07:66:88:86:3b:10:10:
         4f:ab:e0:52:d8:96:a7:ea:50:df:ef:b3:e7:73:83:3a:8b:66:
         fb:68:1b:b6:e8:0a:bd:e0:a3:f4:6a:96:94:56:aa:bd:d3:a9:
         d1:06:a5:95:34:9b:51:b9:56:40:38:7e:fa:18:51:32:af:87:
         2f:b1:20:8c:a2:00:d5:69:cf:e9:b4:cf:83:dc:85:b6:59:6f:
         36:12:5e:b1:23:14:3d:a1:55:cc:5e:ab:2a:61:cd:56:61:10:
         21:f3:68:5e:b9:21:33:aa:d8:51:3b:b4:16:90:64:07:9c:9d:
         fb:97:7b:a7:30:05:37:8e:4c:6a:85:8e:85:12:31:c1:5f:e6:
         26:94:30:6c:f0:55:1a:ad:f9:47:0c:e1:df:6a:23:e3:84:c9:
         9e:2c:5b:40:0b:f6:2b:85:30:1e:a2:23:fb:f2:f3:c4:64:58:
         86:24:b9:7f:a8:bb:85:4b:c4:2e:a1:5f:c8:f0:17:71:24:30:
         6a:00:19:13:64:cf:91:3e:4a:47:26:e7:d6:4f:fa:4a:76:bf:
         44:08:87:d3:d1:06:b2:ae:57:d1:24:8f:9a:c0:ca:ce:c0:3e:
         37:46:10:27:a7:d5:e6:09:8c:fd:6e:86:9a:60:a8:c0:c0:f1:
         d9:4b:1e:f4:56:1c:e8:55:f0:2b:be:01:dc:ef:dc:e9:80:c6:
         41:97:03:05:e3:e7:66:be:25:c8:05:8b:1d:68:20:fc:d5:b7:
         7e:a7:38:0e:0b:a8:09:03
-----BEGIN CERTIFICATE-----
MIIGeDCCBGCgAwIBAgIBATANBgkqhkiG9w0BAQUFADCBmzELMAkGA1UEBhMCQkEx
CzAJBgNVBAgTAlJTMSEwHwYDVQQKExhFbGVrdHJvdGVobmlja2kgZmFrdWx0ZXQx
KzApBgNVBAsTIktyaXB0b2dyYWZpamEgaSByYWN1bmFyc2thIHphc3RpdGExDzAN
BgNVBAMTBnJvb3RjYTEeMBwGCSqGSIb3DQEJARYPcm9vdGNhQG1haWwuY29tMB4X
DTIxMDQxODE0MzcyOFoXDTIyMDQxODE0MzcyOFowgZsxCzAJBgNVBAYTAkJBMQsw
CQYDVQQIEwJSUzEhMB8GA1UEChMYRWxla3Ryb3RlaG5pY2tpIGZha3VsdGV0MSsw
KQYDVQQLEyJLcmlwdG9ncmFmaWphIGkgcmFjdW5hcnNrYSB6YXN0aXRhMQ8wDQYD
VQQDEwZyb290Y2ExHjAcBgkqhkiG9w0BCQEWD3Jvb3RjYUBtYWlsLmNvbTCCAiIw
DQYJKoZIhvcNAQEBBQADggIPADCCAgoCggIBAPbfxhPAXDqtNspQHtRu4PVsQLVR
pUFqPVnHGsQKAcSXOxUaUQIzBP2HI3CEo4C+45kbXOXHBVFCnof6YgFzZwJTBcWm
KrEedXWvn/VLpHEBgMhJnzh6uIDlqr80sgFigS0QmX9KtXdrpUXKsq95KjlOfgQK
4vxWBwTzz5nb4hymcDabDaIU3Jqk21bjUaGYuf6N4D6hl7Q5X58KAYXdAoDI8s34
UY0PIOsmlZ0esELD5Z+Crxkn1QSe2degnCLQpA9DRJw49taCjqtX6h1y17CP/1pF
5XjuYFySw264FLv5FERBIlz5dnIERl32yTv5jUnomw/jega9fd36Wb5ccupaLXv4
OBymrpVZ1gm6DQzKfKXPzLVkl9w23enuQV1vtDxXcd1cqWzX312/EVFSK/2nE2dp
sr+ocfg+W+554/NuriBtKaVP5nv7L+gxNwDd+E7TmmbK7jbottYFL3QjQGAORM+F
ua8ECW/7Spwauuukzt2S8NbyK0mLd68YpjJoHHBoXFhYJZ0vl6i6GEhPfj58EcHt
D+pPcz4XPSJwPO55j8vpBhpbxB4/k+guOYgihVZRMEAH7hoialYoQoomOL5mL5K9
PzIVXid0caZPAjGygvq51gATHneljYxEn9m0wM2BVM9SujSMNChvIicKEOldzE7J
fYNPljYzTBotXxjxAgMBAAGjgcQwgcEwCQYDVR0TBAIwADATBgNVHSUEDDAKBggr
BgEFBQcDAjAsBglghkgBhvhCAQ0EHxYdT3BlblNTTCBHZW5lcmF0ZWQgQ2VydGlm
aWNhdGUwHQYDVR0OBBYEFGElbjd/ag+3zpsmkIcDVRF2iAaOMB8GA1UdIwQYMBaA
FGElbjd/ag+3zpsmkIcDVRF2iAaOMDEGA1UdHwQqMCgwJqAkoCKGIGh0dHA6Ly8x
OTIuMTY4LjIxLjg5L3Jvb3RjcmwucGVtMA0GCSqGSIb3DQEBBQUAA4ICAQDIO28+
Pw3ZqHF0AXjLJyS2kvSgwcAgUalnjCJ9Y1OaK2jyLppzkGePaZ/tT6nlmVAm693k
brp8p0kmAZjEqYHz4h4Lx5B1KpnD3M16tq37p3BS/urcvWhdLbGJMfv094BEnIGX
+vNNFEnp11gr8KU+/TRkCHrCiBXRI1SXKCpRpCClsW3dihBws30bIMkoTLsxV2+7
FzTFCWYumQZGOYkrLTAxt0a7fDIpq1/itC7mm80gF/jo7iZspMp1uimfwPng8udC
Yf2pwIlWWAU3sHWLvc+/o6kYwxVUeUCdDOMJZYISkgdmiIY7EBBPq+BS2Jan6lDf
77Pnc4M6i2b7aBu26Aq94KP0apaUVqq906nRBqWVNJtRuVZAOH76GFEyr4cvsSCM
ogDVac/ptM+D3IW2WW82El6xIxQ9oVXMXqsqYc1WYRAh82heuSEzqthRO7QWkGQH
nJ37l3unMAU3jkxqhY6FEjHBX+YmlDBs8FUarflHDOHfaiPjhMmeLFtAC/YrhTAe
oiP78vPEZFiGJLl/qLuFS8QuoV/I8BdxJDBqABkTZM+RPkpHJufWT/pKdr9ECIfT
0QayrlfRJI+awMrOwD43RhAnp9XmCYz9boaaYKjAwPHZSx70VhzoVfArvgHc79zp
gMZBlwMF4+dmviXIBYsdaCD81bd+pzgOC6gJAw==
-----END CERTIFICATE-----
