Certificate:
    Data:
        Version: 3 (0x2)
        Serial Number: 1 (0x1)
        Signature Algorithm: sha1WithRSAEncryption
        Issuer: C=BA, ST=RS, O=Elektrotehnicki fakultet, OU=Kriptografija i racunarska zastita, CN=CA/emailAddress=ca@secur.ity
        Validity
            Not Before: Apr  6 12:32:52 2021 GMT
            Not After : Apr  6 12:32:52 2022 GMT
        Subject: C=BA, ST=RS, O=Elektrotehnicki fakultet, OU=Kriptografija i racunarska zastita, CN=CA/emailAddress=ca@secur.ity
        Subject Public Key Info:
            Public Key Algorithm: rsaEncryption
                RSA Public-Key: (4096 bit)
                Modulus:
                    00:bf:df:d6:e0:60:a6:49:85:51:1c:ef:d6:77:61:
                    8b:f3:95:90:e1:64:2a:ca:6c:d9:8f:3c:e0:0a:a8:
                    17:68:78:a0:c4:cd:82:92:e3:9f:30:de:d0:ef:6f:
                    6c:af:95:7a:97:49:bb:d9:fc:60:96:f5:93:32:c8:
                    6e:cb:2d:0b:b9:76:f6:b2:db:ce:6b:2f:eb:9b:fc:
                    37:fe:a5:1a:3c:6e:4a:c9:06:95:fa:b6:18:1d:a8:
                    db:33:ed:76:21:4d:27:bf:98:3f:c2:a3:8d:05:11:
                    3a:df:10:88:37:27:19:e2:00:7d:c3:c8:60:85:ba:
                    07:f2:86:69:ac:9e:40:5c:68:ea:b5:48:02:93:e1:
                    79:4f:5c:99:eb:a2:5e:97:06:8d:c3:b7:46:64:94:
                    22:3f:29:c5:6f:ac:3e:81:ec:95:6e:89:7c:7f:3a:
                    1e:1f:06:8a:8c:fa:b6:01:c8:70:f7:ec:27:54:98:
                    f3:40:b7:24:84:2f:94:d6:ab:b7:ff:9f:ac:c2:77:
                    37:41:3a:52:41:58:4e:63:eb:14:7b:3a:42:84:02:
                    41:e8:85:a2:e0:63:23:30:7f:8b:22:ca:5f:7d:b7:
                    86:55:97:a4:90:12:24:c3:bc:50:1e:d6:f0:23:1b:
                    64:15:bc:0b:16:d4:b2:91:d4:0c:91:3f:57:9d:d8:
                    b9:a4:5f:6a:b2:58:ec:1e:80:29:3a:da:c4:2a:3a:
                    ac:f9:3d:ef:b7:a9:31:37:7b:10:bb:ae:63:a3:61:
                    8e:63:c5:6b:a5:df:11:52:24:52:07:9a:60:0a:09:
                    5a:bc:83:b7:5d:bd:3d:e7:1f:b3:44:2f:90:1f:41:
                    34:16:44:19:c5:73:a2:c7:7a:57:ec:32:ec:44:ad:
                    42:17:43:67:39:72:a5:e4:fa:19:58:98:bb:63:a8:
                    59:75:71:60:1b:09:3c:da:f5:3b:2b:7a:da:48:6d:
                    d0:11:06:20:f7:82:b4:18:6e:a6:81:30:29:16:c3:
                    bf:fe:52:98:de:33:83:29:13:38:f5:8f:4a:ff:a5:
                    4a:99:ec:93:e0:1b:51:d3:79:c3:53:1d:be:ca:cf:
                    fa:18:72:bb:a5:f5:48:a8:53:b4:52:67:df:57:b7:
                    e9:84:f8:75:79:86:33:88:f9:33:d4:39:3e:4e:34:
                    da:96:cd:0f:a7:90:7a:49:70:f6:4d:b1:d3:3a:5c:
                    39:b4:46:38:92:f8:34:be:43:48:1d:83:55:10:ba:
                    bc:5b:78:5f:6a:50:62:e9:9b:dd:a5:83:38:c5:22:
                    e5:d6:f9:ae:86:20:89:95:d0:d5:99:ee:c3:66:5e:
                    8f:84:45:48:aa:f4:8a:79:ff:a0:c5:42:29:c1:5e:
                    32:44:c7
                Exponent: 65537 (0x10001)
        X509v3 extensions:
            X509v3 Basic Constraints: 
                CA:FALSE
            X509v3 Extended Key Usage: 
                TLS Web Client Authentication
            Netscape Comment: 
                OpenSSL Generated Certificate
            X509v3 Subject Key Identifier: 
                A0:09:CF:9F:B0:C6:A3:D8:B4:64:2F:AC:BC:E0:94:55:EB:A1:16:90
            X509v3 Authority Key Identifier: 
                keyid:A0:09:CF:9F:B0:C6:A3:D8:B4:64:2F:AC:BC:E0:94:55:EB:A1:16:90

            X509v3 CRL Distribution Points: 

                Full Name:
                  URI:http://192.168.21.89/rootcrl.pem

    Signature Algorithm: sha1WithRSAEncryption
         a1:cf:3a:04:d8:de:e5:ec:64:cc:30:ed:d7:a9:5c:81:80:6a:
         9d:39:d3:15:9b:55:b7:e7:60:fd:32:61:70:32:8d:41:2e:16:
         61:e1:20:18:d9:18:b9:31:22:82:19:5f:86:a1:85:40:fd:ee:
         58:14:db:d6:30:77:75:e8:e5:87:5c:4e:07:02:a3:b1:cf:a2:
         47:00:3b:70:4a:e1:35:db:ca:39:ec:3f:2c:39:a3:88:39:c6:
         05:09:e1:86:5f:81:ff:2b:f5:1e:77:72:36:28:a2:a0:47:f9:
         d2:30:7b:a9:89:fd:d2:67:86:b6:74:1a:39:a1:ba:f1:27:bc:
         af:64:ba:de:8d:df:37:1c:da:69:81:00:75:88:2a:0f:ef:f3:
         8c:1c:6d:14:17:1b:fd:77:57:c0:d9:6e:6c:10:72:61:ec:34:
         04:1b:69:88:95:f8:19:2d:f7:88:1c:0e:43:89:6f:4c:d2:29:
         74:d8:03:12:e6:83:23:97:de:d1:af:40:64:97:85:8f:4d:43:
         93:b7:82:2e:b1:c2:39:bb:99:fb:35:b3:0c:7b:65:6c:70:f7:
         8f:28:7e:47:7a:05:15:20:e3:c7:03:9a:00:ac:cd:eb:c1:1e:
         27:65:a3:ea:e2:8a:18:7e:23:d4:d0:be:30:27:96:1b:2f:5c:
         6e:3b:a5:86:9a:ed:98:35:0a:cc:96:5f:0d:05:9a:b0:3b:e7:
         a2:96:53:a7:16:21:e1:c5:a9:dc:6f:b8:f7:b9:74:16:3a:b1:
         62:78:22:20:a8:26:ad:76:19:09:71:e5:1b:70:07:e8:83:81:
         3d:3e:ed:f2:61:8e:5c:40:fe:91:10:f5:4f:e5:6d:68:e3:43:
         73:65:b3:7e:29:6e:29:7f:37:33:c9:db:42:b5:ac:74:b9:5d:
         70:15:71:0f:9a:56:7d:3f:6d:e8:8c:39:0d:37:33:42:d2:cf:
         37:d9:c9:b6:5f:12:2b:ac:88:74:41:5e:04:70:9b:9c:77:78:
         78:2d:03:db:94:e3:13:2c:2a:8a:12:d5:a7:2e:0b:1d:a1:9f:
         63:9b:d6:f0:43:cb:96:11:d2:78:b8:d1:94:05:dc:e1:28:44:
         7c:3e:bd:0a:fb:df:ec:35:99:02:15:1c:8a:0a:37:1c:27:d5:
         00:66:88:a4:6e:71:4d:e4:7a:98:f2:fc:46:ab:29:20:6b:50:
         bc:a2:f1:3d:19:bc:ff:30:41:4b:6b:fb:c7:d3:d2:83:aa:4e:
         41:78:8a:9a:28:d3:bf:dc:a2:6a:a9:b2:9b:25:11:e6:02:d4:
         ea:1c:5d:53:bf:bf:d4:f8:df:7d:28:e2:7d:1d:d7:79:43:d7:
         0a:c3:be:f4:d9:b1:79:1a
-----BEGIN CERTIFICATE-----
MIIGajCCBFKgAwIBAgIBATANBgkqhkiG9w0BAQUFADCBlDELMAkGA1UEBhMCQkEx
CzAJBgNVBAgTAlJTMSEwHwYDVQQKExhFbGVrdHJvdGVobmlja2kgZmFrdWx0ZXQx
KzApBgNVBAsTIktyaXB0b2dyYWZpamEgaSByYWN1bmFyc2thIHphc3RpdGExCzAJ
BgNVBAMTAkNBMRswGQYJKoZIhvcNAQkBFgxjYUBzZWN1ci5pdHkwHhcNMjEwNDA2
MTIzMjUyWhcNMjIwNDA2MTIzMjUyWjCBlDELMAkGA1UEBhMCQkExCzAJBgNVBAgT
AlJTMSEwHwYDVQQKExhFbGVrdHJvdGVobmlja2kgZmFrdWx0ZXQxKzApBgNVBAsT
IktyaXB0b2dyYWZpamEgaSByYWN1bmFyc2thIHphc3RpdGExCzAJBgNVBAMTAkNB
MRswGQYJKoZIhvcNAQkBFgxjYUBzZWN1ci5pdHkwggIiMA0GCSqGSIb3DQEBAQUA
A4ICDwAwggIKAoICAQC/39bgYKZJhVEc79Z3YYvzlZDhZCrKbNmPPOAKqBdoeKDE
zYKS458w3tDvb2yvlXqXSbvZ/GCW9ZMyyG7LLQu5dvay285rL+ub/Df+pRo8bkrJ
BpX6thgdqNsz7XYhTSe/mD/Co40FETrfEIg3JxniAH3DyGCFugfyhmmsnkBcaOq1
SAKT4XlPXJnrol6XBo3Dt0ZklCI/KcVvrD6B7JVuiXx/Oh4fBoqM+rYByHD37CdU
mPNAtySEL5TWq7f/n6zCdzdBOlJBWE5j6xR7OkKEAkHohaLgYyMwf4siyl99t4ZV
l6SQEiTDvFAe1vAjG2QVvAsW1LKR1AyRP1ed2LmkX2qyWOwegCk62sQqOqz5Pe+3
qTE3exC7rmOjYY5jxWul3xFSJFIHmmAKCVq8g7ddvT3nH7NEL5AfQTQWRBnFc6LH
elfsMuxErUIXQ2c5cqXk+hlYmLtjqFl1cWAbCTza9TsretpIbdARBiD3grQYbqaB
MCkWw7/+UpjeM4MpEzj1j0r/pUqZ7JPgG1HTecNTHb7Kz/oYcrul9UioU7RSZ99X
t+mE+HV5hjOI+TPUOT5ONNqWzQ+nkHpJcPZNsdM6XDm0RjiS+DS+Q0gdg1UQurxb
eF9qUGLpm92lgzjFIuXW+a6GIImV0NWZ7sNmXo+ERUiq9Ip5/6DFQinBXjJExwID
AQABo4HEMIHBMAkGA1UdEwQCMAAwEwYDVR0lBAwwCgYIKwYBBQUHAwIwLAYJYIZI
AYb4QgENBB8WHU9wZW5TU0wgR2VuZXJhdGVkIENlcnRpZmljYXRlMB0GA1UdDgQW
BBSgCc+fsMaj2LRkL6y84JRV66EWkDAfBgNVHSMEGDAWgBSgCc+fsMaj2LRkL6y8
4JRV66EWkDAxBgNVHR8EKjAoMCagJKAihiBodHRwOi8vMTkyLjE2OC4yMS44OS9y
b290Y3JsLnBlbTANBgkqhkiG9w0BAQUFAAOCAgEAoc86BNje5exkzDDt16lcgYBq
nTnTFZtVt+dg/TJhcDKNQS4WYeEgGNkYuTEighlfhqGFQP3uWBTb1jB3dejlh1xO
BwKjsc+iRwA7cErhNdvKOew/LDmjiDnGBQnhhl+B/yv1HndyNiiioEf50jB7qYn9
0meGtnQaOaG68Se8r2S63o3fNxzaaYEAdYgqD+/zjBxtFBcb/XdXwNlubBByYew0
BBtpiJX4GS33iBwOQ4lvTNIpdNgDEuaDI5fe0a9AZJeFj01Dk7eCLrHCObuZ+zWz
DHtlbHD3jyh+R3oFFSDjxwOaAKzN68EeJ2Wj6uKKGH4j1NC+MCeWGy9cbjulhprt
mDUKzJZfDQWasDvnopZTpxYh4cWp3G+497l0FjqxYngiIKgmrXYZCXHlG3AH6IOB
PT7t8mGOXED+kRD1T+VtaONDc2WzfiluKX83M8nbQrWsdLldcBVxD5pWfT9t6Iw5
DTczQtLPN9nJtl8SK6yIdEFeBHCbnHd4eC0D25TjEywqihLVpy4LHaGfY5vW8EPL
lhHSeLjRlAXc4ShEfD69Cvvf7DWZAhUcigo3HCfVAGaIpG5xTeR6mPL8RqspIGtQ
vKLxPRm8/zBBS2v7x9PSg6pOQXiKmijTv9yiaqmymyUR5gLU6hxdU7+/1PjffSji
fR3XeUPXCsO+9NmxeRo=
-----END CERTIFICATE-----
