Certificate:
    Data:
        Version: 3 (0x2)
        Serial Number: 1 (0x1)
        Signature Algorithm: sha1WithRSAEncryption
        Issuer: C=BA, ST=RS, O=Elektrotehnicki fakultet, OU=Kriptografija i racunarska zastita, CN=rootca/emailAddress=rootca@mail.com
        Validity
            Not Before: Apr 16 21:53:20 2021 GMT
            Not After : Apr 16 21:53:20 2022 GMT
        Subject: C=BA, ST=RS, O=Elektrotehnicki fakultet, OU=Kriptografija i racunarska zastita, CN=rootca/emailAddress=rootca@mail.com
        Subject Public Key Info:
            Public Key Algorithm: rsaEncryption
                RSA Public-Key: (4096 bit)
                Modulus:
                    00:e5:1b:d3:c4:77:6d:35:ad:ad:7b:81:e9:71:f4:
                    d5:3c:44:8f:c2:16:3a:c4:28:ad:32:1c:35:9f:14:
                    29:4a:65:bd:72:50:05:49:5f:69:d6:b2:60:3b:6a:
                    b8:f1:9a:96:5f:c1:58:5b:40:02:51:7e:d9:1d:87:
                    13:b5:0d:92:66:79:87:15:82:32:4e:f8:0f:09:ca:
                    4e:ab:27:5a:48:5c:db:76:2f:2b:41:da:4e:92:39:
                    c7:a7:26:f2:97:d3:26:32:57:8a:a7:30:7d:54:e0:
                    0f:8b:3f:ce:63:e8:71:7f:4a:da:31:48:4b:51:25:
                    3a:1b:c8:1d:01:b5:dd:5d:cd:66:54:43:32:87:47:
                    58:46:07:d4:de:e9:1e:6a:4d:5e:e4:a1:c1:32:3c:
                    70:03:e7:bf:a4:2f:13:69:03:4c:a4:6a:bf:21:6a:
                    ad:7b:0c:2a:31:a5:28:3a:0e:6a:31:53:3c:ab:3b:
                    d7:7d:30:50:6b:2d:ad:ee:ab:dd:4d:08:7e:3a:bf:
                    05:12:29:26:99:2c:93:e7:3f:32:58:e3:8a:6c:be:
                    82:b3:94:f6:7d:7b:db:30:da:13:45:67:3f:f6:77:
                    f3:f4:19:b2:e4:46:8b:07:05:8d:ab:e5:13:9f:f5:
                    55:89:8f:1a:8c:6c:e4:86:d4:61:ce:d3:9d:0e:f5:
                    0c:57:29:19:21:0d:db:08:bc:4f:e4:47:5e:5a:81:
                    50:8a:bf:64:d3:f2:52:5f:88:45:4d:ce:95:ea:81:
                    ab:72:a4:c5:93:07:f3:0f:73:f8:b1:f8:b1:df:69:
                    17:ac:e5:ac:99:52:d7:97:c7:30:7e:dc:be:99:23:
                    e6:68:50:c2:63:3c:aa:07:e3:4e:17:8b:57:6a:d1:
                    c8:02:da:a4:c7:db:2b:38:65:4b:14:ea:f4:d1:1a:
                    f6:f4:f4:5e:b4:ea:66:b8:9a:e1:65:c9:4d:40:63:
                    19:8d:6a:a3:44:a3:10:d7:6f:1e:d8:2f:82:af:47:
                    4b:97:7d:01:88:47:fe:f2:98:52:62:72:47:c3:94:
                    7f:ce:09:a6:cf:84:cf:1b:1e:6b:ea:4c:1f:33:5e:
                    fc:29:a2:35:51:a3:60:42:83:9e:32:53:5b:2a:9e:
                    ae:82:bb:30:80:3d:4c:d3:01:ec:4f:83:45:9e:21:
                    a7:03:7f:74:49:da:e2:92:e5:d6:ec:ac:2b:4c:77:
                    20:75:23:eb:37:cc:2b:72:2d:72:9a:58:ca:e2:b6:
                    9a:12:52:87:4a:b1:54:f2:62:dd:d7:11:ff:f1:cc:
                    dc:79:97:b7:73:77:08:15:30:b1:8f:8f:4c:a8:54:
                    ed:09:bf:84:51:e3:d6:bd:af:90:b6:b4:f9:0f:29:
                    ea:c0:8b
                Exponent: 65537 (0x10001)
        X509v3 extensions:
            X509v3 Basic Constraints: 
                CA:FALSE
            X509v3 Extended Key Usage: 
                TLS Web Client Authentication
            Netscape Comment: 
                OpenSSL Generated Certificate
            X509v3 Subject Key Identifier: 
                8E:FD:F1:76:1B:75:4A:0F:C9:9F:CD:14:50:0F:F0:48:76:AF:65:B8
            X509v3 Authority Key Identifier: 
                keyid:8E:FD:F1:76:1B:75:4A:0F:C9:9F:CD:14:50:0F:F0:48:76:AF:65:B8

            X509v3 CRL Distribution Points: 

                Full Name:
                  URI:http://192.168.21.89/rootcrl.pem

    Signature Algorithm: sha1WithRSAEncryption
         80:1b:a1:8e:a1:63:01:03:0a:b7:1d:74:d3:ed:52:99:c2:fd:
         c0:c5:fe:c3:ab:b9:d4:fd:49:f4:58:3b:ea:9b:89:24:47:5d:
         d6:14:1c:1e:54:b2:09:20:f0:b5:aa:41:b7:1a:6a:8e:5a:51:
         db:76:10:d0:88:db:34:e5:a1:7f:8c:6f:e9:c3:ef:81:8a:69:
         e8:bc:6c:99:ec:90:e6:17:16:aa:da:83:4d:aa:e7:7b:da:2c:
         05:0a:95:c6:9c:69:ee:2d:8a:9d:5b:6a:a2:d6:cc:40:ba:15:
         bd:4c:ee:a6:47:f6:3f:ef:ac:be:5d:26:f3:f1:f1:51:a5:59:
         57:f0:f4:d2:df:da:93:af:c2:0a:cb:2e:c9:81:d3:0e:50:9d:
         89:90:e6:6d:48:c8:bd:ed:87:a5:eb:8a:27:50:0a:cb:f2:8a:
         8a:a4:eb:83:fd:af:49:80:0f:c9:21:88:aa:42:c9:01:84:e7:
         73:65:dc:df:6d:cf:ed:fb:d4:57:e5:d1:b1:06:a3:0b:d6:f4:
         3c:95:08:59:52:f2:cc:6a:99:1d:9d:ca:37:14:18:7e:ce:73:
         be:32:d0:11:b5:b1:9e:8d:61:96:e1:9f:f6:35:a0:d0:ac:f3:
         d5:63:70:14:e9:61:4d:20:28:08:67:f8:4f:6a:06:1b:8a:e6:
         36:28:72:fe:23:8a:82:4d:e4:ee:70:f0:71:26:c0:30:c0:3c:
         5d:0d:ad:b8:c9:05:67:e3:56:80:ca:5c:29:7e:85:d9:2b:f2:
         c2:f7:d5:c1:f4:57:69:fd:3e:25:d7:36:49:de:00:15:44:df:
         a5:04:25:47:2f:76:fe:cd:6d:de:eb:48:54:e0:11:54:0c:d6:
         a5:5b:99:0c:d4:b2:81:81:d3:f3:ed:5c:f6:f1:12:bf:e0:81:
         5c:3c:0c:ff:1a:4a:e7:0f:b7:7b:09:e9:42:7a:9e:00:64:f3:
         10:49:fc:c5:0a:a3:ba:3d:c4:d6:3e:c7:63:74:1b:a3:c0:2c:
         49:32:d4:3b:7d:ef:3e:b4:b3:43:01:d7:0d:2c:0f:db:2f:7b:
         c5:d5:3c:25:57:24:b3:73:f6:02:80:d6:c5:61:b9:d9:cf:9f:
         cd:92:d0:fc:36:46:03:7e:2d:8d:04:6f:16:6e:a5:d9:cf:57:
         11:0d:a5:04:6c:ba:ae:78:9f:c9:6c:02:c1:1a:d7:0c:b6:30:
         1b:93:85:c5:4b:60:85:25:b7:a0:1a:ae:32:11:e3:79:c4:50:
         7a:fd:52:e9:13:75:bb:cb:2a:d5:6e:cf:a6:44:09:9f:f8:fe:
         29:8a:78:c6:57:d2:1c:cd:28:4a:bc:5a:ea:d0:dd:44:09:19:
         b3:b8:a5:de:e7:1f:4c:26
-----BEGIN CERTIFICATE-----
MIIGeDCCBGCgAwIBAgIBATANBgkqhkiG9w0BAQUFADCBmzELMAkGA1UEBhMCQkEx
CzAJBgNVBAgTAlJTMSEwHwYDVQQKExhFbGVrdHJvdGVobmlja2kgZmFrdWx0ZXQx
KzApBgNVBAsTIktyaXB0b2dyYWZpamEgaSByYWN1bmFyc2thIHphc3RpdGExDzAN
BgNVBAMTBnJvb3RjYTEeMBwGCSqGSIb3DQEJARYPcm9vdGNhQG1haWwuY29tMB4X
DTIxMDQxNjIxNTMyMFoXDTIyMDQxNjIxNTMyMFowgZsxCzAJBgNVBAYTAkJBMQsw
CQYDVQQIEwJSUzEhMB8GA1UEChMYRWxla3Ryb3RlaG5pY2tpIGZha3VsdGV0MSsw
KQYDVQQLEyJLcmlwdG9ncmFmaWphIGkgcmFjdW5hcnNrYSB6YXN0aXRhMQ8wDQYD
VQQDEwZyb290Y2ExHjAcBgkqhkiG9w0BCQEWD3Jvb3RjYUBtYWlsLmNvbTCCAiIw
DQYJKoZIhvcNAQEBBQADggIPADCCAgoCggIBAOUb08R3bTWtrXuB6XH01TxEj8IW
OsQorTIcNZ8UKUplvXJQBUlfadayYDtquPGall/BWFtAAlF+2R2HE7UNkmZ5hxWC
Mk74DwnKTqsnWkhc23YvK0HaTpI5x6cm8pfTJjJXiqcwfVTgD4s/zmPocX9K2jFI
S1ElOhvIHQG13V3NZlRDModHWEYH1N7pHmpNXuShwTI8cAPnv6QvE2kDTKRqvyFq
rXsMKjGlKDoOajFTPKs7130wUGstre6r3U0Ifjq/BRIpJpksk+c/Mljjimy+grOU
9n172zDaE0VnP/Z38/QZsuRGiwcFjavlE5/1VYmPGoxs5IbUYc7TnQ71DFcpGSEN
2wi8T+RHXlqBUIq/ZNPyUl+IRU3OleqBq3KkxZMH8w9z+LH4sd9pF6zlrJlS15fH
MH7cvpkj5mhQwmM8qgfjTheLV2rRyALapMfbKzhlSxTq9NEa9vT0XrTqZria4WXJ
TUBjGY1qo0SjENdvHtgvgq9HS5d9AYhH/vKYUmJyR8OUf84Jps+Ezxsea+pMHzNe
/CmiNVGjYEKDnjJTWyqeroK7MIA9TNMB7E+DRZ4hpwN/dEna4pLl1uysK0x3IHUj
6zfMK3ItcppYyuK2mhJSh0qxVPJi3dcR//HM3HmXt3N3CBUwsY+PTKhU7Qm/hFHj
1r2vkLa0+Q8p6sCLAgMBAAGjgcQwgcEwCQYDVR0TBAIwADATBgNVHSUEDDAKBggr
BgEFBQcDAjAsBglghkgBhvhCAQ0EHxYdT3BlblNTTCBHZW5lcmF0ZWQgQ2VydGlm
aWNhdGUwHQYDVR0OBBYEFI798XYbdUoPyZ/NFFAP8Eh2r2W4MB8GA1UdIwQYMBaA
FI798XYbdUoPyZ/NFFAP8Eh2r2W4MDEGA1UdHwQqMCgwJqAkoCKGIGh0dHA6Ly8x
OTIuMTY4LjIxLjg5L3Jvb3RjcmwucGVtMA0GCSqGSIb3DQEBBQUAA4ICAQCAG6GO
oWMBAwq3HXTT7VKZwv3Axf7Dq7nU/Un0WDvqm4kkR13WFBweVLIJIPC1qkG3GmqO
WlHbdhDQiNs05aF/jG/pw++BimnovGyZ7JDmFxaq2oNNqud72iwFCpXGnGnuLYqd
W2qi1sxAuhW9TO6mR/Y/76y+XSbz8fFRpVlX8PTS39qTr8IKyy7JgdMOUJ2JkOZt
SMi97Yel64onUArL8oqKpOuD/a9JgA/JIYiqQskBhOdzZdzfbc/t+9RX5dGxBqML
1vQ8lQhZUvLMapkdnco3FBh+znO+MtARtbGejWGW4Z/2NaDQrPPVY3AU6WFNICgI
Z/hPagYbiuY2KHL+I4qCTeTucPBxJsAwwDxdDa24yQVn41aAylwpfoXZK/LC99XB
9Fdp/T4l1zZJ3gAVRN+lBCVHL3b+zW3e60hU4BFUDNalW5kM1LKBgdPz7Vz28RK/
4IFcPAz/GkrnD7d7CelCep4AZPMQSfzFCqO6PcTWPsdjdBujwCxJMtQ7fe8+tLND
AdcNLA/bL3vF1TwlVySzc/YCgNbFYbnZz5/NktD8NkYDfi2NBG8WbqXZz1cRDaUE
bLqueJ/JbALBGtcMtjAbk4XFS2CFJbegGq4yEeN5xFB6/VLpE3W7yyrVbs+mRAmf
+P4pinjGV9IczShKvFrq0N1ECRmzuKXe5x9MJg==
-----END CERTIFICATE-----
