Certificate:
    Data:
        Version: 3 (0x2)
        Serial Number: 2 (0x2)
        Signature Algorithm: sha1WithRSAEncryption
        Issuer: C=BA, ST=RS, O=Elektrotehnicki fakultet, OU=Kriptografija i racunarska zastita, CN=rootca/emailAddress=rootca@mail.com
        Validity
            Not Before: Apr 16 21:59:31 2021 GMT
            Not After : Apr 16 21:59:31 2022 GMT
        Subject: C=BA, ST=RS, O=Elektrotehnicki fakultet, OU=Kriptografija i racunarska zastita, CN=kiki/emailAddress=kiki@mail.com
        Subject Public Key Info:
            Public Key Algorithm: rsaEncryption
                RSA Public-Key: (2048 bit)
                Modulus:
                    00:c7:eb:53:ef:df:3e:14:45:34:2d:d8:f0:5d:3f:
                    7c:3d:da:6a:6e:8a:ca:f0:a7:ae:da:46:5d:78:f4:
                    d8:db:f9:cf:2e:68:87:23:2c:14:56:ff:a3:fb:9f:
                    56:21:75:a0:ca:6f:ce:82:ae:80:0f:8c:0e:83:68:
                    52:76:2b:f6:e9:e7:f2:70:63:6a:7b:36:cc:b5:d7:
                    b6:ad:89:72:da:23:ff:0a:13:c6:8d:3e:1c:b1:63:
                    c6:37:f3:75:70:96:57:4c:54:82:f3:1a:78:29:00:
                    a0:26:d2:00:20:d2:a7:71:7f:c4:83:04:82:60:7d:
                    95:58:50:96:72:03:36:c8:f4:0e:a2:ba:48:cd:98:
                    53:d4:40:8f:e5:31:30:92:0d:11:a4:98:e9:b9:dd:
                    30:66:77:8b:04:ac:4b:1e:91:8d:dd:2c:a9:7d:56:
                    42:fe:ec:e8:8b:d2:d9:44:aa:1b:b3:28:a5:81:6c:
                    8b:17:08:df:84:8f:b2:3e:58:b5:47:2d:d5:fc:77:
                    6c:3d:31:ea:f3:30:75:ed:4f:d0:16:49:ec:8a:0c:
                    3f:a9:23:02:80:a1:d4:86:97:60:35:bd:be:73:1a:
                    f4:ae:88:6d:96:22:f0:2d:3c:e8:e0:9f:ec:10:43:
                    86:35:d9:9f:20:a8:0d:dc:18:a2:f7:89:33:f4:7f:
                    4e:83
                Exponent: 65537 (0x10001)
        X509v3 extensions:
            X509v3 Basic Constraints: 
                CA:FALSE
            X509v3 Extended Key Usage: 
                TLS Web Client Authentication
            Netscape Comment: 
                OpenSSL Generated Certificate
            X509v3 Subject Key Identifier: 
                70:40:16:90:F2:DC:DA:89:BE:0D:7B:49:5E:C0:79:E2:E3:18:2A:BA
            X509v3 Authority Key Identifier: 
                keyid:8E:FD:F1:76:1B:75:4A:0F:C9:9F:CD:14:50:0F:F0:48:76:AF:65:B8

            X509v3 CRL Distribution Points: 

                Full Name:
                  URI:http://192.168.21.89/rootcrl.pem

    Signature Algorithm: sha1WithRSAEncryption
         1d:e6:b7:65:65:86:24:41:4d:fb:ef:af:db:64:c6:8f:bb:b0:
         70:fa:e6:d3:d9:74:a5:a3:3f:5b:15:a5:f9:48:05:10:d8:ec:
         d8:1a:0c:2d:39:93:71:7f:34:89:0e:1a:67:e9:c2:72:d6:84:
         c9:c6:fa:d9:b5:18:99:75:2a:9f:35:76:83:87:fe:68:e0:13:
         ae:37:4e:0a:1a:08:2c:e8:59:c0:3c:53:ea:ce:d9:f4:b5:4b:
         79:b1:ca:e5:e5:e1:c6:03:fe:70:37:da:a7:3b:7b:fa:79:dc:
         bc:52:ee:b1:dc:cf:54:45:14:ca:49:17:b0:1f:71:f2:d8:59:
         ad:10:8c:5d:65:b7:42:80:e8:a1:cd:49:a0:37:b2:86:b8:49:
         82:ad:ec:6d:89:03:4f:d1:b4:08:e7:3b:6a:8e:fa:74:88:37:
         1b:a8:d5:74:22:ff:e9:7b:b9:2a:5f:68:eb:1b:fb:38:ad:ec:
         64:20:95:d5:19:dc:c3:91:47:09:fc:10:8b:84:a2:f7:29:b0:
         3a:38:3a:92:26:63:03:ab:d0:a1:d7:bb:2b:55:4b:ea:44:2e:
         9d:06:10:60:b7:d2:09:37:b8:c6:eb:63:7a:af:8a:f3:eb:e5:
         63:b9:8d:ed:ff:ea:7e:94:c9:14:11:df:53:28:1c:7c:6d:3d:
         5b:3d:4c:09:b6:1f:18:9c:be:60:4d:8b:b8:7c:f8:4d:4e:9f:
         83:28:aa:e2:4f:26:24:30:99:b1:f7:8a:23:32:5a:4e:09:d9:
         ea:5f:24:47:af:57:25:99:52:a8:1c:5c:b1:27:31:bd:79:2e:
         6a:9f:d5:71:2f:20:c6:1a:b8:94:64:d5:fd:d9:ab:03:c7:00:
         11:e8:3a:32:62:3a:bf:5b:32:e7:cd:b1:30:89:9b:3a:25:6d:
         bc:63:3b:1e:18:be:29:24:6b:86:b9:12:b7:33:69:0b:41:6e:
         8c:9c:af:09:b6:46:f5:44:3e:c7:00:b1:a6:80:90:27:60:21:
         25:1a:f7:f6:ca:d3:9e:c7:68:d6:f0:d3:6e:fa:e0:39:8d:ab:
         7e:d5:30:19:1d:cb:ad:4a:70:11:2b:f3:af:a7:8f:f0:b7:ea:
         ac:ad:ee:a5:e7:ff:c4:f2:fe:9f:9e:1e:5e:71:dd:c6:9e:4c:
         0d:3f:0b:6d:31:8c:87:1a:d9:dc:b8:c5:27:1c:d8:f6:a6:71:
         91:60:21:f6:05:27:44:1f:49:05:0b:50:8a:f2:69:7e:7e:c9:
         1b:c5:0c:9a:9a:80:53:69:33:10:88:35:be:9f:ae:04:6e:62:
         d0:ca:24:a5:1c:55:72:ee:a9:f8:7b:e4:bb:db:8a:b8:a5:f7:
         d1:d0:66:8f:3c:99:e9:06
-----BEGIN CERTIFICATE-----
MIIFdDCCA1ygAwIBAgIBAjANBgkqhkiG9w0BAQUFADCBmzELMAkGA1UEBhMCQkEx
CzAJBgNVBAgTAlJTMSEwHwYDVQQKExhFbGVrdHJvdGVobmlja2kgZmFrdWx0ZXQx
KzApBgNVBAsTIktyaXB0b2dyYWZpamEgaSByYWN1bmFyc2thIHphc3RpdGExDzAN
BgNVBAMTBnJvb3RjYTEeMBwGCSqGSIb3DQEJARYPcm9vdGNhQG1haWwuY29tMB4X
DTIxMDQxNjIxNTkzMVoXDTIyMDQxNjIxNTkzMVowgZcxCzAJBgNVBAYTAkJBMQsw
CQYDVQQIEwJSUzEhMB8GA1UEChMYRWxla3Ryb3RlaG5pY2tpIGZha3VsdGV0MSsw
KQYDVQQLEyJLcmlwdG9ncmFmaWphIGkgcmFjdW5hcnNrYSB6YXN0aXRhMQ0wCwYD
VQQDEwRraWtpMRwwGgYJKoZIhvcNAQkBFg1raWtpQG1haWwuY29tMIIBIjANBgkq
hkiG9w0BAQEFAAOCAQ8AMIIBCgKCAQEAx+tT798+FEU0LdjwXT98PdpqborK8Keu
2kZdePTY2/nPLmiHIywUVv+j+59WIXWgym/Ogq6AD4wOg2hSdiv26efycGNqezbM
tde2rYly2iP/ChPGjT4csWPGN/N1cJZXTFSC8xp4KQCgJtIAINKncX/EgwSCYH2V
WFCWcgM2yPQOorpIzZhT1ECP5TEwkg0RpJjpud0wZneLBKxLHpGN3SypfVZC/uzo
i9LZRKobsyilgWyLFwjfhI+yPli1Ry3V/HdsPTHq8zB17U/QFknsigw/qSMCgKHU
hpdgNb2+cxr0rohtliLwLTzo4J/sEEOGNdmfIKgN3Bii94kz9H9OgwIDAQABo4HE
MIHBMAkGA1UdEwQCMAAwEwYDVR0lBAwwCgYIKwYBBQUHAwIwLAYJYIZIAYb4QgEN
BB8WHU9wZW5TU0wgR2VuZXJhdGVkIENlcnRpZmljYXRlMB0GA1UdDgQWBBRwQBaQ
8tzaib4Ne0lewHni4xgqujAfBgNVHSMEGDAWgBSO/fF2G3VKD8mfzRRQD/BIdq9l
uDAxBgNVHR8EKjAoMCagJKAihiBodHRwOi8vMTkyLjE2OC4yMS44OS9yb290Y3Js
LnBlbTANBgkqhkiG9w0BAQUFAAOCAgEAHea3ZWWGJEFN+++v22TGj7uwcPrm09l0
paM/WxWl+UgFENjs2BoMLTmTcX80iQ4aZ+nCctaEycb62bUYmXUqnzV2g4f+aOAT
rjdOChoILOhZwDxT6s7Z9LVLebHK5eXhxgP+cDfapzt7+nncvFLusdzPVEUUykkX
sB9x8thZrRCMXWW3QoDooc1JoDeyhrhJgq3sbYkDT9G0COc7ao76dIg3G6jVdCL/
6Xu5Kl9o6xv7OK3sZCCV1Rncw5FHCfwQi4Si9ymwOjg6kiZjA6vQode7K1VL6kQu
nQYQYLfSCTe4xutjeq+K8+vlY7mN7f/qfpTJFBHfUygcfG09Wz1MCbYfGJy+YE2L
uHz4TU6fgyiq4k8mJDCZsfeKIzJaTgnZ6l8kR69XJZlSqBxcsScxvXkuap/VcS8g
xhq4lGTV/dmrA8cAEeg6MmI6v1sy582xMImbOiVtvGM7Hhi+KSRrhrkStzNpC0Fu
jJyvCbZG9UQ+xwCxpoCQJ2AhJRr39srTnsdo1vDTbvrgOY2rftUwGR3LrUpwESvz
r6eP8LfqrK3upef/xPL+n54eXnHdxp5MDT8LbTGMhxrZ3LjFJxzY9qZxkWAh9gUn
RB9JBQtQivJpfn7JG8UMmpqAU2kzEIg1vp+uBG5i0MokpRxVcu6p+Hvku9uKuKX3
0dBmjzyZ6QY=
-----END CERTIFICATE-----
