Certificate:
    Data:
        Version: 3 (0x2)
        Serial Number: 2 (0x2)
        Signature Algorithm: sha1WithRSAEncryption
        Issuer: C=BA, ST=RS, O=Elektrotehnicki fakultet, OU=Kriptografija i racunarska zastita, CN=rootca/emailAddress=rootca@mail.com
        Validity
            Not Before: Apr 17 14:51:21 2021 GMT
            Not After : Apr 17 14:51:21 2022 GMT
        Subject: C=BA, ST=RS, O=Elektrotehnicki fakultet, OU=Kriptografija i racunarska zastita, CN=kiki/emailAddress=kiki@mail.com
        Subject Public Key Info:
            Public Key Algorithm: rsaEncryption
                RSA Public-Key: (2048 bit)
                Modulus:
                    00:ba:2d:3e:49:83:19:2e:81:21:ff:89:b2:93:f0:
                    ac:74:53:36:16:af:be:e9:21:16:07:6c:48:4e:a2:
                    7c:0f:73:c3:78:3b:e2:b3:75:80:f5:a1:b7:93:0d:
                    8a:07:6d:d2:38:0a:97:f0:6e:75:8f:74:66:a7:57:
                    da:a5:d8:18:a8:b5:dd:dd:bf:bb:cf:4c:52:9c:9d:
                    2c:c6:d7:e0:e3:a2:05:60:6a:05:db:e1:6b:60:a0:
                    8e:35:61:ff:57:b5:88:e1:f8:81:ff:86:80:f9:69:
                    78:1b:e8:04:f6:49:f0:34:b4:af:a5:ad:27:77:c3:
                    da:b1:4d:6e:ae:3f:77:61:9e:6b:ac:07:ff:e0:77:
                    ec:7b:61:0c:e4:6f:c3:f2:32:04:82:d2:e4:a7:15:
                    0c:40:9f:9b:50:0b:68:a9:e1:b6:8c:da:40:4a:67:
                    83:7f:3d:d2:cf:43:ec:a3:59:54:95:21:7b:06:c7:
                    e3:f8:7c:97:46:fc:d9:7d:e1:58:53:1d:1b:b8:5f:
                    ac:bd:03:28:5c:c5:a0:df:99:7c:5e:1f:8f:ba:cf:
                    db:9b:25:3e:f9:2a:8f:d4:c9:2a:39:18:4a:54:91:
                    4a:02:57:a6:0b:3e:15:ad:d4:e2:74:ef:46:82:ce:
                    88:64:eb:6c:90:e3:b6:d1:37:c5:7b:e4:15:ff:af:
                    c7:a7
                Exponent: 65537 (0x10001)
        X509v3 extensions:
            X509v3 Basic Constraints: 
                CA:FALSE
            X509v3 Extended Key Usage: 
                TLS Web Client Authentication
            Netscape Comment: 
                OpenSSL Generated Certificate
            X509v3 Subject Key Identifier: 
                A5:D7:E2:D8:47:5B:28:F4:D6:4D:4E:37:63:C8:5E:89:10:5A:BF:F0
            X509v3 Authority Key Identifier: 
                keyid:8E:FD:F1:76:1B:75:4A:0F:C9:9F:CD:14:50:0F:F0:48:76:AF:65:B8

            X509v3 CRL Distribution Points: 

                Full Name:
                  URI:http://192.168.21.89/rootcrl.pem

    Signature Algorithm: sha1WithRSAEncryption
         07:d8:cb:ef:94:53:7f:ec:4a:c4:a2:87:65:3a:f8:b1:78:b5:
         cc:1a:2b:4e:97:a4:53:7a:3f:04:41:9b:a4:35:df:2c:7e:c7:
         7c:1c:c1:55:77:9a:9e:67:9a:39:73:b8:0a:c1:91:da:79:33:
         76:a5:9a:41:26:8b:11:4a:ef:46:02:7c:d4:7e:68:3e:b7:c1:
         e8:7f:14:75:80:bf:04:15:3a:2b:79:1f:cc:61:bd:c6:6a:2c:
         d4:89:0d:fb:99:8d:87:f1:7d:9f:ff:de:67:a7:e7:8c:13:4d:
         38:15:3a:a6:49:90:d4:05:4f:82:41:69:d4:28:71:9c:9b:5b:
         cf:60:b1:a6:e4:b7:67:c8:fe:5a:69:74:2b:23:dd:46:28:87:
         82:45:b2:f0:f9:64:17:e5:9e:0d:17:bf:60:33:75:f5:d8:12:
         b9:c4:0c:57:8d:8e:35:d5:fd:aa:de:4a:b5:e1:54:50:36:9d:
         b3:e7:b5:cd:95:e3:f6:d7:22:1a:1e:30:08:1c:89:47:83:f1:
         c4:82:d2:dd:db:40:cc:e6:e0:b0:2f:9c:49:6a:46:5f:4a:da:
         e1:2d:a3:79:13:3f:36:b7:08:7d:43:8f:85:fd:8f:3f:d2:04:
         a6:93:da:b9:8b:e3:24:b2:c7:c3:42:64:dc:b9:b9:f5:de:99:
         64:16:15:9f:fa:bb:3a:2f:9d:d9:9b:95:d1:d1:6a:c8:b7:71:
         21:d5:80:4f:95:bd:ac:42:38:7e:70:bb:f6:cb:67:0b:a8:12:
         be:fa:24:42:99:cb:d2:5a:7c:dd:56:3e:fa:39:65:17:36:f8:
         65:27:48:d4:18:9f:cd:34:c0:cb:31:50:19:42:9b:96:90:8b:
         8c:10:30:20:ef:c4:c1:14:26:16:02:10:3f:be:a8:a7:f6:db:
         19:08:22:de:e9:d4:d8:fa:f7:ca:67:69:45:0d:aa:4d:ea:13:
         31:70:a8:c1:77:45:b8:61:16:53:74:d1:35:01:6c:ca:0b:e5:
         49:6f:a2:1c:bf:c7:0e:a5:1b:da:f0:e0:95:aa:86:d1:4f:27:
         60:cf:3e:e0:3f:4e:4d:46:7a:49:9d:a8:63:ac:29:ab:bb:ce:
         63:2e:b2:1a:28:34:e2:60:b1:d8:65:3f:3a:86:6d:36:da:99:
         6d:1c:a4:19:f6:32:17:7d:42:a3:71:c6:36:a6:9c:ee:7e:c7:
         d2:bf:f4:e4:6c:53:4e:71:8c:ed:0e:27:c9:fc:c1:07:32:83:
         6d:8b:1b:c2:9d:3c:8d:c8:a6:78:6b:85:55:39:6a:c6:4f:b5:
         93:b1:6e:6c:7d:8b:c5:a7:f3:d9:b5:b9:d0:ec:a3:a0:6d:c8:
         93:96:f6:7d:10:5f:74:3b
-----BEGIN CERTIFICATE-----
MIIFdDCCA1ygAwIBAgIBAjANBgkqhkiG9w0BAQUFADCBmzELMAkGA1UEBhMCQkEx
CzAJBgNVBAgTAlJTMSEwHwYDVQQKExhFbGVrdHJvdGVobmlja2kgZmFrdWx0ZXQx
KzApBgNVBAsTIktyaXB0b2dyYWZpamEgaSByYWN1bmFyc2thIHphc3RpdGExDzAN
BgNVBAMTBnJvb3RjYTEeMBwGCSqGSIb3DQEJARYPcm9vdGNhQG1haWwuY29tMB4X
DTIxMDQxNzE0NTEyMVoXDTIyMDQxNzE0NTEyMVowgZcxCzAJBgNVBAYTAkJBMQsw
CQYDVQQIEwJSUzEhMB8GA1UEChMYRWxla3Ryb3RlaG5pY2tpIGZha3VsdGV0MSsw
KQYDVQQLEyJLcmlwdG9ncmFmaWphIGkgcmFjdW5hcnNrYSB6YXN0aXRhMQ0wCwYD
VQQDEwRraWtpMRwwGgYJKoZIhvcNAQkBFg1raWtpQG1haWwuY29tMIIBIjANBgkq
hkiG9w0BAQEFAAOCAQ8AMIIBCgKCAQEAui0+SYMZLoEh/4myk/CsdFM2Fq++6SEW
B2xITqJ8D3PDeDvis3WA9aG3kw2KB23SOAqX8G51j3Rmp1fapdgYqLXd3b+7z0xS
nJ0sxtfg46IFYGoF2+FrYKCONWH/V7WI4fiB/4aA+Wl4G+gE9knwNLSvpa0nd8Pa
sU1urj93YZ5rrAf/4Hfse2EM5G/D8jIEgtLkpxUMQJ+bUAtoqeG2jNpASmeDfz3S
z0Pso1lUlSF7Bsfj+HyXRvzZfeFYUx0buF+svQMoXMWg35l8Xh+Pus/bmyU++SqP
1MkqORhKVJFKAlemCz4VrdTidO9Ggs6IZOtskOO20TfFe+QV/6/HpwIDAQABo4HE
MIHBMAkGA1UdEwQCMAAwEwYDVR0lBAwwCgYIKwYBBQUHAwIwLAYJYIZIAYb4QgEN
BB8WHU9wZW5TU0wgR2VuZXJhdGVkIENlcnRpZmljYXRlMB0GA1UdDgQWBBSl1+LY
R1so9NZNTjdjyF6JEFq/8DAfBgNVHSMEGDAWgBSO/fF2G3VKD8mfzRRQD/BIdq9l
uDAxBgNVHR8EKjAoMCagJKAihiBodHRwOi8vMTkyLjE2OC4yMS44OS9yb290Y3Js
LnBlbTANBgkqhkiG9w0BAQUFAAOCAgEAB9jL75RTf+xKxKKHZTr4sXi1zBorTpek
U3o/BEGbpDXfLH7HfBzBVXeanmeaOXO4CsGR2nkzdqWaQSaLEUrvRgJ81H5oPrfB
6H8UdYC/BBU6K3kfzGG9xmos1IkN+5mNh/F9n//eZ6fnjBNNOBU6pkmQ1AVPgkFp
1ChxnJtbz2CxpuS3Z8j+Wml0KyPdRiiHgkWy8PlkF+WeDRe/YDN19dgSucQMV42O
NdX9qt5KteFUUDads+e1zZXj9tciGh4wCByJR4PxxILS3dtAzObgsC+cSWpGX0ra
4S2jeRM/NrcIfUOPhf2PP9IEppPauYvjJLLHw0Jk3Lm59d6ZZBYVn/q7Oi+d2ZuV
0dFqyLdxIdWAT5W9rEI4fnC79stnC6gSvvokQpnL0lp83VY++jllFzb4ZSdI1Bif
zTTAyzFQGUKblpCLjBAwIO/EwRQmFgIQP76op/bbGQgi3unU2Pr3ymdpRQ2qTeoT
MXCowXdFuGEWU3TRNQFsygvlSW+iHL/HDqUb2vDglaqG0U8nYM8+4D9OTUZ6SZ2o
Y6wpq7vOYy6yGig04mCx2GU/OoZtNtqZbRykGfYyF31Co3HGNqac7n7H0r/05GxT
TnGM7Q4nyfzBBzKDbYsbwp08jcimeGuFVTlqxk+1k7FubH2Lxafz2bW50OyjoG3I
k5b2fRBfdDs=
-----END CERTIFICATE-----
