Certificate:
    Data:
        Version: 3 (0x2)
        Serial Number: 4 (0x4)
        Signature Algorithm: sha1WithRSAEncryption
        Issuer: C=BA, ST=RS, O=Elektrotehnicki fakultet, OU=Kriptografija i racunarska zastita, CN=CA/emailAddress=ca@secur.ity
        Validity
            Not Before: Apr 15 22:51:58 2021 GMT
            Not After : Apr 15 22:51:58 2022 GMT
        Subject: C=BA, ST=RS, O=Elektrotehnicki fakultet, OU=Kriptografija i racunarska zastita, CN=tuki/emailAddress=tuki@mail.com
        Subject Public Key Info:
            Public Key Algorithm: rsaEncryption
                RSA Public-Key: (2048 bit)
                Modulus:
                    00:c3:e4:7a:bf:f5:50:4f:62:41:8c:3d:56:1a:61:
                    f6:28:7f:59:6d:f9:f6:0f:2e:e1:c9:a5:f7:af:b5:
                    f1:81:f6:ee:e3:90:db:d3:97:f1:53:cb:d9:c0:28:
                    a3:57:16:21:40:a6:f8:bf:d5:06:3f:c7:fa:ef:85:
                    aa:b5:86:83:90:88:75:21:49:0a:3a:1e:e3:e6:62:
                    26:8a:fa:54:eb:1d:9e:bd:f5:6c:1c:2e:7d:0a:a8:
                    81:80:c0:ec:3b:6f:7f:fd:02:a5:06:c9:b2:76:da:
                    ab:10:c0:2a:ca:2f:71:44:d8:41:28:6a:57:a1:c2:
                    ab:f7:7d:8b:65:f5:2f:94:4f:b7:ab:17:4d:b8:85:
                    fd:a4:25:dd:5f:8d:b2:e2:48:20:58:f3:69:6d:b4:
                    82:e8:80:75:57:a4:4e:a7:b5:7b:84:c8:42:1a:15:
                    0a:c5:d5:05:03:e0:8f:fe:14:00:64:e2:2f:09:39:
                    53:1f:af:e4:4e:a8:38:de:a3:c0:4e:98:bc:98:08:
                    a0:0d:30:cf:f7:be:92:01:0e:c5:b7:70:86:eb:cf:
                    0a:64:4a:1d:cc:af:20:ef:9f:0e:9f:04:62:9e:d5:
                    24:9b:03:4c:52:c4:9a:c6:8b:e3:44:47:9a:f3:55:
                    ee:e7:20:73:72:7b:d4:11:10:c8:e5:74:6f:8b:ae:
                    9b:23
                Exponent: 65537 (0x10001)
        X509v3 extensions:
            X509v3 Basic Constraints: 
                CA:FALSE
            X509v3 Extended Key Usage: 
                TLS Web Client Authentication
            Netscape Comment: 
                OpenSSL Generated Certificate
            X509v3 Subject Key Identifier: 
                11:72:28:6A:11:F2:71:1B:37:54:FF:25:F2:9D:3E:6B:75:EC:D1:AD
            X509v3 Authority Key Identifier: 
                keyid:A0:09:CF:9F:B0:C6:A3:D8:B4:64:2F:AC:BC:E0:94:55:EB:A1:16:90

            X509v3 CRL Distribution Points: 

                Full Name:
                  URI:http://192.168.21.89/rootcrl.pem

    Signature Algorithm: sha1WithRSAEncryption
         94:20:18:20:08:cd:d7:e5:fa:d2:f7:5e:5b:06:00:96:3f:3c:
         50:57:70:cb:46:c5:6b:0a:be:c8:dc:66:d1:ad:43:cf:c1:c5:
         5a:57:7b:e0:4d:81:d0:53:32:f9:ea:8c:b0:2f:74:0c:98:82:
         b0:19:2c:b0:1d:9c:3d:d5:f1:bb:81:4b:09:ee:f5:50:15:76:
         be:90:96:88:a2:99:22:23:19:6d:9e:e1:a7:71:6e:76:b8:5f:
         8b:be:48:fe:07:34:61:0f:ba:8a:a3:02:16:14:bf:d9:58:b9:
         01:c2:6c:23:0b:cd:ec:6b:58:62:17:09:20:6b:ba:e2:cb:24:
         b1:6f:b4:18:63:8c:91:5b:78:1b:7b:7b:47:1d:46:c4:d2:89:
         d9:3e:96:0b:43:29:75:75:79:50:6b:f3:d3:65:9c:63:bf:9b:
         df:c2:ce:f2:3a:85:d5:47:60:33:4f:bb:7b:f2:bb:ef:db:10:
         04:e5:3e:ba:7d:f6:62:da:66:03:bb:a9:d2:a2:5c:c0:1c:e5:
         eb:75:4e:55:fa:ce:0b:86:e4:ee:c4:6c:59:86:b2:78:bc:1c:
         25:1e:77:27:36:14:c3:8b:3d:7c:fd:ce:8d:5a:92:c1:e8:45:
         ba:f7:8f:11:85:1d:ca:83:4e:91:33:0b:54:78:1c:c8:f0:ed:
         7e:bf:08:6c:fe:ab:1d:53:82:0e:e9:e3:1d:f5:25:4f:26:0a:
         e4:af:61:54:d3:a4:79:85:87:35:6b:18:6e:78:ca:ca:cc:fa:
         1a:9a:89:25:42:cf:3b:a1:e9:97:10:48:9e:e8:4c:cf:6e:f6:
         43:cb:be:05:c8:db:5b:44:d6:81:f4:dc:48:81:29:4e:ba:e2:
         2e:13:53:3e:9d:2d:67:5d:72:21:f6:37:68:72:9a:92:cb:49:
         c7:fb:72:6a:a0:99:10:27:32:52:95:94:64:26:0e:6e:7b:9c:
         a0:7f:81:97:25:9e:3d:49:53:8a:18:54:ba:03:84:9b:23:83:
         0a:a3:f5:ee:13:1a:ad:d3:06:ef:30:39:ea:1f:21:6a:a7:ea:
         5f:c8:88:bb:9d:21:80:cb:78:e1:9a:e0:c1:87:42:6b:c4:1e:
         82:c7:c9:a2:41:bf:4b:29:7d:05:ad:13:4f:a1:f7:ce:82:87:
         74:ad:4a:5e:9e:b9:36:5b:0b:ed:ef:6a:00:8d:a0:ac:ba:9d:
         70:c3:d3:c4:de:6f:0b:20:a7:a0:a4:63:ac:a3:cb:32:e7:11:
         97:a5:7f:e5:9f:ea:32:8d:50:0b:9e:7a:ea:05:0c:13:0b:90:
         f5:d2:d3:3b:f8:5a:f7:ac:20:d3:42:fd:bb:68:a2:7e:17:12:
         45:4c:b0:23:aa:88:09:81
-----BEGIN CERTIFICATE-----
MIIFbTCCA1WgAwIBAgIBBDANBgkqhkiG9w0BAQUFADCBlDELMAkGA1UEBhMCQkEx
CzAJBgNVBAgTAlJTMSEwHwYDVQQKExhFbGVrdHJvdGVobmlja2kgZmFrdWx0ZXQx
KzApBgNVBAsTIktyaXB0b2dyYWZpamEgaSByYWN1bmFyc2thIHphc3RpdGExCzAJ
BgNVBAMTAkNBMRswGQYJKoZIhvcNAQkBFgxjYUBzZWN1ci5pdHkwHhcNMjEwNDE1
MjI1MTU4WhcNMjIwNDE1MjI1MTU4WjCBlzELMAkGA1UEBhMCQkExCzAJBgNVBAgT
AlJTMSEwHwYDVQQKExhFbGVrdHJvdGVobmlja2kgZmFrdWx0ZXQxKzApBgNVBAsT
IktyaXB0b2dyYWZpamEgaSByYWN1bmFyc2thIHphc3RpdGExDTALBgNVBAMTBHR1
a2kxHDAaBgkqhkiG9w0BCQEWDXR1a2lAbWFpbC5jb20wggEiMA0GCSqGSIb3DQEB
AQUAA4IBDwAwggEKAoIBAQDD5Hq/9VBPYkGMPVYaYfYof1lt+fYPLuHJpfevtfGB
9u7jkNvTl/FTy9nAKKNXFiFApvi/1QY/x/rvhaq1hoOQiHUhSQo6HuPmYiaK+lTr
HZ699WwcLn0KqIGAwOw7b3/9AqUGybJ22qsQwCrKL3FE2EEoalehwqv3fYtl9S+U
T7erF024hf2kJd1fjbLiSCBY82lttILogHVXpE6ntXuEyEIaFQrF1QUD4I/+FABk
4i8JOVMfr+ROqDjeo8BOmLyYCKANMM/3vpIBDsW3cIbrzwpkSh3MryDvnw6fBGKe
1SSbA0xSxJrGi+NER5rzVe7nIHNye9QREMjldG+LrpsjAgMBAAGjgcQwgcEwCQYD
VR0TBAIwADATBgNVHSUEDDAKBggrBgEFBQcDAjAsBglghkgBhvhCAQ0EHxYdT3Bl
blNTTCBHZW5lcmF0ZWQgQ2VydGlmaWNhdGUwHQYDVR0OBBYEFBFyKGoR8nEbN1T/
JfKdPmt17NGtMB8GA1UdIwQYMBaAFKAJz5+wxqPYtGQvrLzglFXroRaQMDEGA1Ud
HwQqMCgwJqAkoCKGIGh0dHA6Ly8xOTIuMTY4LjIxLjg5L3Jvb3RjcmwucGVtMA0G
CSqGSIb3DQEBBQUAA4ICAQCUIBggCM3X5frS915bBgCWPzxQV3DLRsVrCr7I3GbR
rUPPwcVaV3vgTYHQUzL56oywL3QMmIKwGSywHZw91fG7gUsJ7vVQFXa+kJaIopki
IxltnuGncW52uF+Lvkj+BzRhD7qKowIWFL/ZWLkBwmwjC83sa1hiFwkga7riyySx
b7QYY4yRW3gbe3tHHUbE0onZPpYLQyl1dXlQa/PTZZxjv5vfws7yOoXVR2AzT7t7
8rvv2xAE5T66ffZi2mYDu6nSolzAHOXrdU5V+s4LhuTuxGxZhrJ4vBwlHncnNhTD
iz18/c6NWpLB6EW6948RhR3Kg06RMwtUeBzI8O1+vwhs/qsdU4IO6eMd9SVPJgrk
r2FU06R5hYc1axhueMrKzPoamoklQs87oemXEEie6EzPbvZDy74FyNtbRNaB9NxI
gSlOuuIuE1M+nS1nXXIh9jdocpqSy0nH+3JqoJkQJzJSlZRkJg5ue5ygf4GXJZ49
SVOKGFS6A4SbI4MKo/XuExqt0wbvMDnqHyFqp+pfyIi7nSGAy3jhmuDBh0JrxB6C
x8miQb9LKX0FrRNPoffOgod0rUpenrk2Wwvt72oAjaCsup1ww9PE3m8LIKegpGOs
o8sy5xGXpX/ln+oyjVALnnrqBQwTC5D10tM7+Fr3rCDTQv27aKJ+FxJFTLAjqogJ
gQ==
-----END CERTIFICATE-----
