Certificate:
    Data:
        Version: 3 (0x2)
        Serial Number: 4 (0x4)
        Signature Algorithm: sha1WithRSAEncryption
        Issuer: C=BA, ST=RS, O=Elektrotehnicki fakultet, OU=Kriptografija i racunarska zastita, CN=rootca/emailAddress=rootca@mail.com
        Validity
            Not Before: Apr 17 10:49:32 2021 GMT
            Not After : Apr 17 10:49:32 2022 GMT
        Subject: C=BA, ST=RS, O=Elektrotehnicki fakultet, OU=Kriptografija i racunarska zastita, CN=fifi/emailAddress=fifi@mail.com
        Subject Public Key Info:
            Public Key Algorithm: rsaEncryption
                RSA Public-Key: (2048 bit)
                Modulus:
                    00:b8:78:c2:74:af:34:55:f7:cf:41:bb:07:fd:bb:
                    30:9d:01:63:df:42:18:27:02:5a:1b:e0:0d:53:ed:
                    bb:90:eb:18:19:67:4e:32:a4:22:2a:f4:60:30:ca:
                    18:8b:59:b2:31:8a:57:07:56:66:5f:9a:83:fb:15:
                    08:c5:84:a9:01:c3:3e:b8:22:0f:c7:7e:b4:32:e9:
                    3e:5b:41:ea:b4:15:6f:49:a9:aa:9f:10:08:00:89:
                    4c:a3:5c:fb:bf:68:7d:f7:a7:22:ef:f9:4b:e4:14:
                    46:fc:1e:48:e7:0a:2a:6f:bc:01:36:bd:30:a0:25:
                    2a:74:c2:27:60:ba:ae:4c:a7:4b:da:ac:a4:4f:d0:
                    d8:a4:eb:d3:86:46:b5:06:69:3c:3f:0e:6d:9b:75:
                    9a:fd:ef:09:18:42:c2:69:1d:41:9e:64:52:d0:50:
                    72:1b:9f:71:f6:af:f4:9b:3e:73:07:3f:f4:ab:ab:
                    30:8e:94:08:94:8a:5b:26:f7:e4:84:fc:ec:46:89:
                    06:71:2a:3c:d0:88:d2:1d:fb:a6:b3:f9:7d:96:2c:
                    e1:95:65:79:39:c9:a8:8e:b4:cc:33:b4:e7:1e:ca:
                    86:01:e9:19:62:64:b9:ed:33:22:99:46:55:2c:94:
                    5f:20:1c:39:b6:f6:e2:1f:7d:ec:d0:58:44:06:8e:
                    c8:8d
                Exponent: 65537 (0x10001)
        X509v3 extensions:
            X509v3 Basic Constraints: 
                CA:FALSE
            X509v3 Extended Key Usage: 
                TLS Web Client Authentication
            Netscape Comment: 
                OpenSSL Generated Certificate
            X509v3 Subject Key Identifier: 
                F2:F1:B7:5D:4F:E8:7B:50:03:B0:BC:74:D6:18:B8:0A:BC:7D:4B:D5
            X509v3 Authority Key Identifier: 
                keyid:8E:FD:F1:76:1B:75:4A:0F:C9:9F:CD:14:50:0F:F0:48:76:AF:65:B8

            X509v3 CRL Distribution Points: 

                Full Name:
                  URI:http://192.168.21.89/rootcrl.pem

    Signature Algorithm: sha1WithRSAEncryption
         86:8b:da:e1:68:b7:a1:7e:73:12:8f:23:55:4d:65:a5:89:92:
         91:b7:17:7b:ba:ea:5e:d3:b1:a1:fe:4f:dc:d6:53:11:a2:66:
         84:0f:81:f6:71:99:ca:7c:7a:94:d9:64:82:c3:62:03:ed:30:
         84:af:8d:59:83:17:0a:fb:24:8e:85:7c:da:d3:fb:27:93:e4:
         b7:3d:72:8b:fa:36:09:23:6a:a6:15:d9:25:fa:37:60:6d:6f:
         40:37:8e:ad:38:e0:7c:41:06:20:60:02:8b:b6:03:4c:75:99:
         80:ff:9d:23:26:ed:1e:2e:d2:f6:ef:d5:ba:a8:a7:bf:73:f6:
         10:a1:c3:5a:34:e8:bf:fa:f4:9d:de:10:d7:73:3a:c8:b9:3a:
         6e:df:d0:2b:32:ef:30:f4:28:5a:c5:80:9c:74:e9:01:d4:eb:
         ee:85:fd:0a:d0:1f:dc:13:cd:53:e3:11:6a:7a:6c:35:19:96:
         c3:5e:16:5c:bd:6f:4c:b2:ef:95:8b:44:1d:1f:d4:43:62:ee:
         c2:92:a3:2f:69:fb:39:68:72:e4:1e:dc:98:70:52:3a:d6:86:
         55:4b:b2:c0:43:69:f9:5d:9e:1e:48:4d:11:9c:1c:e9:a6:51:
         f3:4c:11:47:1f:c2:fa:d4:8c:03:0e:08:66:de:5f:6d:43:90:
         2d:5f:de:fb:99:1a:2d:3d:cc:7d:57:1b:47:e7:97:f2:3f:0e:
         cf:7e:9d:31:ca:ae:a2:39:a3:30:d9:9d:6c:bf:66:5d:f6:29:
         b2:33:42:14:4b:19:66:19:8c:0a:46:1d:37:48:40:96:77:78:
         d8:6b:df:00:e1:43:c0:9a:e9:a2:fc:6a:2b:f5:c4:ec:ee:0f:
         4e:c5:bb:75:02:83:c2:a7:91:24:cf:11:89:b2:fd:f5:31:b6:
         f4:29:1f:96:b9:81:81:04:90:29:18:7c:8e:9e:48:f6:40:27:
         81:4d:05:c8:df:6a:1c:fb:52:cb:ab:df:cb:08:5d:b4:e1:cd:
         89:86:8e:c6:5f:94:7c:58:96:23:6a:ca:01:9f:25:43:19:a0:
         c5:e8:ec:e5:b2:b8:cd:0a:14:e6:5b:95:2b:1c:5c:9b:a7:bf:
         fd:7c:40:b0:3f:d3:c6:16:62:70:4a:eb:04:b0:3b:2c:81:15:
         e1:ca:f3:b6:3d:e1:d5:80:c4:fe:97:46:1a:33:a9:6c:6b:5b:
         0c:36:0b:35:72:6e:2f:6a:bb:cb:38:69:72:1a:e3:38:13:dd:
         e7:9e:bc:34:88:ac:c9:1a:ad:4e:b9:e0:39:cb:5d:43:16:54:
         6d:a9:e5:5f:94:43:cd:0c:77:95:c9:98:c0:77:f7:83:2c:ba:
         93:25:b2:de:9f:58:71:84
-----BEGIN CERTIFICATE-----
MIIFdDCCA1ygAwIBAgIBBDANBgkqhkiG9w0BAQUFADCBmzELMAkGA1UEBhMCQkEx
CzAJBgNVBAgTAlJTMSEwHwYDVQQKExhFbGVrdHJvdGVobmlja2kgZmFrdWx0ZXQx
KzApBgNVBAsTIktyaXB0b2dyYWZpamEgaSByYWN1bmFyc2thIHphc3RpdGExDzAN
BgNVBAMTBnJvb3RjYTEeMBwGCSqGSIb3DQEJARYPcm9vdGNhQG1haWwuY29tMB4X
DTIxMDQxNzEwNDkzMloXDTIyMDQxNzEwNDkzMlowgZcxCzAJBgNVBAYTAkJBMQsw
CQYDVQQIEwJSUzEhMB8GA1UEChMYRWxla3Ryb3RlaG5pY2tpIGZha3VsdGV0MSsw
KQYDVQQLEyJLcmlwdG9ncmFmaWphIGkgcmFjdW5hcnNrYSB6YXN0aXRhMQ0wCwYD
VQQDEwRmaWZpMRwwGgYJKoZIhvcNAQkBFg1maWZpQG1haWwuY29tMIIBIjANBgkq
hkiG9w0BAQEFAAOCAQ8AMIIBCgKCAQEAuHjCdK80VffPQbsH/bswnQFj30IYJwJa
G+ANU+27kOsYGWdOMqQiKvRgMMoYi1myMYpXB1ZmX5qD+xUIxYSpAcM+uCIPx360
Muk+W0HqtBVvSamqnxAIAIlMo1z7v2h996ci7/lL5BRG/B5I5woqb7wBNr0woCUq
dMInYLquTKdL2qykT9DYpOvThka1Bmk8Pw5tm3Wa/e8JGELCaR1BnmRS0FByG59x
9q/0mz5zBz/0q6swjpQIlIpbJvfkhPzsRokGcSo80IjSHfums/l9lizhlWV5Ocmo
jrTMM7TnHsqGAekZYmS57TMimUZVLJRfIBw5tvbiH33s0FhEBo7IjQIDAQABo4HE
MIHBMAkGA1UdEwQCMAAwEwYDVR0lBAwwCgYIKwYBBQUHAwIwLAYJYIZIAYb4QgEN
BB8WHU9wZW5TU0wgR2VuZXJhdGVkIENlcnRpZmljYXRlMB0GA1UdDgQWBBTy8bdd
T+h7UAOwvHTWGLgKvH1L1TAfBgNVHSMEGDAWgBSO/fF2G3VKD8mfzRRQD/BIdq9l
uDAxBgNVHR8EKjAoMCagJKAihiBodHRwOi8vMTkyLjE2OC4yMS44OS9yb290Y3Js
LnBlbTANBgkqhkiG9w0BAQUFAAOCAgEAhova4Wi3oX5zEo8jVU1lpYmSkbcXe7rq
XtOxof5P3NZTEaJmhA+B9nGZynx6lNlkgsNiA+0whK+NWYMXCvskjoV82tP7J5Pk
tz1yi/o2CSNqphXZJfo3YG1vQDeOrTjgfEEGIGACi7YDTHWZgP+dIybtHi7S9u/V
uqinv3P2EKHDWjTov/r0nd4Q13M6yLk6bt/QKzLvMPQoWsWAnHTpAdTr7oX9CtAf
3BPNU+MRanpsNRmWw14WXL1vTLLvlYtEHR/UQ2LuwpKjL2n7OWhy5B7cmHBSOtaG
VUuywENp+V2eHkhNEZwc6aZR80wRRx/C+tSMAw4IZt5fbUOQLV/e+5kaLT3MfVcb
R+eX8j8Oz36dMcquojmjMNmdbL9mXfYpsjNCFEsZZhmMCkYdN0hAlnd42GvfAOFD
wJrpovxqK/XE7O4PTsW7dQKDwqeRJM8RibL99TG29CkflrmBgQSQKRh8jp5I9kAn
gU0FyN9qHPtSy6vfywhdtOHNiYaOxl+UfFiWI2rKAZ8lQxmgxejs5bK4zQoU5luV
Kxxcm6e//XxAsD/TxhZicErrBLA7LIEV4crztj3h1YDE/pdGGjOpbGtbDDYLNXJu
L2q7yzhpchrjOBPd5568NIisyRqtTrngOctdQxZUbanlX5RDzQx3lcmYwHf3gyy6
kyWy3p9YcYQ=
-----END CERTIFICATE-----
