Certificate:
    Data:
        Version: 3 (0x2)
        Serial Number: 8 (0x8)
        Signature Algorithm: sha1WithRSAEncryption
        Issuer: C=BA, ST=RS, O=Elektrotehnicki fakultet, OU=Kriptografija i racunarska zastita, CN=rootca/emailAddress=rootca@mail.com
        Validity
            Not Before: Apr 17 15:24:27 2021 GMT
            Not After : Apr 17 15:24:27 2022 GMT
        Subject: C=BA, ST=RS, O=Elektrotehnicki fakultet, OU=Kriptografija i racunarska zastita, CN=kiki/emailAddress=kiki
        Subject Public Key Info:
            Public Key Algorithm: rsaEncryption
                RSA Public-Key: (2048 bit)
                Modulus:
                    00:ac:92:47:d8:f8:ca:aa:ff:5b:b7:99:10:29:df:
                    e9:8d:90:30:e2:fc:ff:fe:68:5d:f9:81:9f:59:01:
                    f5:20:bb:b4:10:87:28:02:f9:0a:d9:52:6b:85:c9:
                    28:5a:27:3d:33:03:83:24:97:75:76:c4:3c:ec:b5:
                    1d:fd:31:32:f5:10:06:61:d2:f9:81:3a:5e:bc:83:
                    fb:56:72:a2:94:b6:c9:1d:93:0d:47:f5:c4:3c:79:
                    ce:1f:eb:9c:49:f8:68:1f:81:23:fe:01:47:60:9b:
                    61:a7:76:01:4f:01:ef:fb:35:ef:0b:31:53:49:42:
                    39:2a:08:70:cd:d1:04:51:16:b1:cf:e7:9e:1b:3b:
                    ac:ff:fd:e0:2f:fc:d0:1b:c8:63:39:5d:c5:f2:78:
                    f4:0f:c6:cf:68:c5:52:9b:c2:e7:12:bc:f1:12:d2:
                    3c:98:65:2e:a2:08:f1:e7:68:4c:19:04:00:8a:60:
                    9b:d1:05:45:06:36:1a:42:94:c6:6d:04:fd:41:4a:
                    6d:a2:43:55:35:7f:01:fc:3a:e5:01:e0:77:18:46:
                    b6:0f:56:8c:44:21:bc:6a:d5:26:a9:78:b6:e6:55:
                    15:aa:aa:d0:4e:b6:5d:ce:c1:0a:fa:a1:b7:d5:c3:
                    77:7f:dd:ab:f5:fb:13:b4:cb:9c:5a:70:a2:aa:3c:
                    64:b7
                Exponent: 65537 (0x10001)
        X509v3 extensions:
            X509v3 Basic Constraints: 
                CA:FALSE
            X509v3 Extended Key Usage: 
                TLS Web Client Authentication
            Netscape Comment: 
                OpenSSL Generated Certificate
            X509v3 Subject Key Identifier: 
                7A:4D:1C:FA:11:CF:CB:32:FB:40:DB:45:AE:B3:64:75:B4:FF:B8:B7
            X509v3 Authority Key Identifier: 
                keyid:8E:FD:F1:76:1B:75:4A:0F:C9:9F:CD:14:50:0F:F0:48:76:AF:65:B8

            X509v3 CRL Distribution Points: 

                Full Name:
                  URI:http://192.168.21.89/rootcrl.pem

    Signature Algorithm: sha1WithRSAEncryption
         b3:de:cb:30:e1:58:35:23:83:86:ee:90:13:37:4c:85:a1:6b:
         7a:4d:ce:e5:97:ee:c7:50:12:fa:64:f8:69:ea:c8:5b:16:e4:
         63:a7:a6:17:68:8e:75:77:4d:fe:da:72:ba:2b:d5:29:1d:ca:
         57:d7:e7:56:44:33:1e:22:59:14:7a:92:9b:40:7c:0a:a1:be:
         b5:8e:ea:e1:f3:38:6a:7d:1d:4c:e0:7f:8f:7f:fb:2c:76:90:
         96:01:4b:63:3a:03:1b:f4:ab:99:b7:8f:7d:8f:40:61:e0:6d:
         c9:f9:3c:cf:eb:1a:29:21:8e:ff:67:42:c8:58:d7:bc:aa:5d:
         0a:cd:2d:11:5b:06:8f:cb:bb:75:ba:01:d1:5e:35:12:76:b9:
         70:d6:ac:f3:b4:87:a3:21:d1:c1:54:2d:59:f9:1c:b7:65:62:
         5d:7f:ad:5d:c9:46:c0:65:00:d8:6d:0d:d1:56:f8:6c:c5:da:
         d5:e8:35:c9:ca:c3:89:14:18:34:83:b2:39:5e:43:35:14:6b:
         11:f1:46:2c:64:6e:86:61:1c:6d:fb:d9:88:09:1b:87:50:f8:
         a1:ce:1f:26:cb:a0:72:cf:39:f4:33:90:58:b1:11:f5:11:a3:
         19:50:c6:ad:45:f9:e2:53:94:bf:67:31:04:4e:81:56:0d:f4:
         56:fb:15:27:6e:7f:91:06:a9:bf:cd:f2:b9:a3:19:43:50:52:
         b6:51:59:46:60:10:d3:1b:5e:c9:e1:ee:9f:84:75:fd:a1:1b:
         92:d0:41:79:6e:dc:a4:bd:11:2e:68:22:6b:10:da:61:73:f9:
         e8:98:6a:82:19:e7:8c:2d:95:e6:bc:fb:80:34:b2:b1:2f:3b:
         8a:a9:e0:10:aa:ea:d6:81:ae:35:45:0f:9f:43:d2:b4:34:72:
         de:cf:4d:d5:5e:16:80:15:0f:a7:8a:f6:c3:d8:75:dd:47:93:
         2f:a3:d9:99:a7:92:ca:30:25:bd:6d:9c:c8:68:5a:3f:0f:fc:
         c3:42:2f:9f:60:1f:4a:9a:90:8f:dd:92:23:a1:e6:6e:bc:28:
         68:1e:b2:2e:cd:02:85:81:d7:b2:3a:f3:2a:ba:cf:95:d5:ce:
         5e:b3:b0:de:ea:55:c5:df:dd:c5:4e:b3:eb:c7:ee:01:e3:bd:
         b6:52:e3:48:79:e7:49:66:f9:94:32:31:27:8f:90:af:bd:38:
         ce:1b:22:72:6a:4e:a4:60:91:8f:f8:71:14:ac:5b:77:bb:06:
         6e:e4:9e:b9:be:15:a9:99:47:77:a8:fb:bc:70:99:2c:aa:d9:
         6a:8f:c4:e1:ae:d0:35:00:28:b7:a8:12:02:03:55:04:36:28:
         6a:82:32:71:33:2b:35:7e
-----BEGIN CERTIFICATE-----
MIIFazCCA1OgAwIBAgIBCDANBgkqhkiG9w0BAQUFADCBmzELMAkGA1UEBhMCQkEx
CzAJBgNVBAgTAlJTMSEwHwYDVQQKExhFbGVrdHJvdGVobmlja2kgZmFrdWx0ZXQx
KzApBgNVBAsTIktyaXB0b2dyYWZpamEgaSByYWN1bmFyc2thIHphc3RpdGExDzAN
BgNVBAMTBnJvb3RjYTEeMBwGCSqGSIb3DQEJARYPcm9vdGNhQG1haWwuY29tMB4X
DTIxMDQxNzE1MjQyN1oXDTIyMDQxNzE1MjQyN1owgY4xCzAJBgNVBAYTAkJBMQsw
CQYDVQQIEwJSUzEhMB8GA1UEChMYRWxla3Ryb3RlaG5pY2tpIGZha3VsdGV0MSsw
KQYDVQQLEyJLcmlwdG9ncmFmaWphIGkgcmFjdW5hcnNrYSB6YXN0aXRhMQ0wCwYD
VQQDEwRraWtpMRMwEQYJKoZIhvcNAQkBFgRraWtpMIIBIjANBgkqhkiG9w0BAQEF
AAOCAQ8AMIIBCgKCAQEArJJH2PjKqv9bt5kQKd/pjZAw4vz//mhd+YGfWQH1ILu0
EIcoAvkK2VJrhckoWic9MwODJJd1dsQ87LUd/TEy9RAGYdL5gTpevIP7VnKilLbJ
HZMNR/XEPHnOH+ucSfhoH4Ej/gFHYJthp3YBTwHv+zXvCzFTSUI5KghwzdEEURax
z+eeGzus//3gL/zQG8hjOV3F8nj0D8bPaMVSm8LnErzxEtI8mGUuogjx52hMGQQA
imCb0QVFBjYaQpTGbQT9QUptokNVNX8B/DrlAeB3GEa2D1aMRCG8atUmqXi25lUV
qqrQTrZdzsEK+qG31cN3f92r9fsTtMucWnCiqjxktwIDAQABo4HEMIHBMAkGA1Ud
EwQCMAAwEwYDVR0lBAwwCgYIKwYBBQUHAwIwLAYJYIZIAYb4QgENBB8WHU9wZW5T
U0wgR2VuZXJhdGVkIENlcnRpZmljYXRlMB0GA1UdDgQWBBR6TRz6Ec/LMvtA20Wu
s2R1tP+4tzAfBgNVHSMEGDAWgBSO/fF2G3VKD8mfzRRQD/BIdq9luDAxBgNVHR8E
KjAoMCagJKAihiBodHRwOi8vMTkyLjE2OC4yMS44OS9yb290Y3JsLnBlbTANBgkq
hkiG9w0BAQUFAAOCAgEAs97LMOFYNSODhu6QEzdMhaFrek3O5Zfux1AS+mT4aerI
WxbkY6emF2iOdXdN/tpyuivVKR3KV9fnVkQzHiJZFHqSm0B8CqG+tY7q4fM4an0d
TOB/j3/7LHaQlgFLYzoDG/SrmbePfY9AYeBtyfk8z+saKSGO/2dCyFjXvKpdCs0t
EVsGj8u7dboB0V41Ena5cNas87SHoyHRwVQtWfkct2ViXX+tXclGwGUA2G0N0Vb4
bMXa1eg1ycrDiRQYNIOyOV5DNRRrEfFGLGRuhmEcbfvZiAkbh1D4oc4fJsugcs85
9DOQWLER9RGjGVDGrUX54lOUv2cxBE6BVg30VvsVJ25/kQapv83yuaMZQ1BStlFZ
RmAQ0xteyeHun4R1/aEbktBBeW7cpL0RLmgiaxDaYXP56JhqghnnjC2V5rz7gDSy
sS87iqngEKrq1oGuNUUPn0PStDRy3s9N1V4WgBUPp4r2w9h13UeTL6PZmaeSyjAl
vW2cyGhaPw/8w0Ivn2AfSpqQj92SI6HmbrwoaB6yLs0ChYHXsjrzKrrPldXOXrOw
3upVxd/dxU6z68fuAeO9tlLjSHnnSWb5lDIxJ4+Qr704zhsicmpOpGCRj/hxFKxb
d7sGbuSeub4VqZlHd6j7vHCZLKrZao/E4a7QNQAot6gSAgNVBDYoaoIycTMrNX4=
-----END CERTIFICATE-----
